

HI-TECH Software PIC LITE Macro Assembler V9.80 build 6738 
                                                                                               Fri Mar 16 18:07:46 2018

HI-TECH Software Omniscient Code Generator (Lite mode) build 6738
     1  0000                     opt subtitle "HI-TECH Software Omniscient Code Generator (Lite mode) build 6738"
     2                           
     3                           opt pagewidth 120
     4                           
     5                           	opt lm
     6                           
     7                           	processor	16F877A
     8                           clrc	macro
     9                           	bcf	3,0
    10  0000                     	endm
    11                           clrz	macro
    12                           	bcf	3,2
    13  0000                     	endm
    14                           setc	macro
    15                           	bsf	3,0
    16  0000                     	endm
    17                           setz	macro
    18                           	bsf	3,2
    19  0000                     	endm
    20                           skipc	macro
    21                           	btfss	3,0
    22  0000                     	endm
    23                           skipz	macro
    24                           	btfss	3,2
    25  0000                     	endm
    26                           skipnc	macro
    27                           	btfsc	3,0
    28  0000                     	endm
    29                           skipnz	macro
    30                           	btfsc	3,2
    31  0000                     	endm
    32  0000                     indf	equ	0
    33  0000                     indf0	equ	0
    34  0002                     pc	equ	2
    35  0002                     pcl	equ	2
    36  0003                     status	equ	3
    37  0004                     fsr	equ	4
    38  0004                     fsr0	equ	4
    39  0001                     c	equ	1
    40  0000                     z	equ	0
    41  000A                     pclath	equ	10
    42                           	FNCALL	_main,_serial_init
    43                           	FNCALL	_main,_gsm_init
    44                           	FNCALL	_main,_lcd_init
    45                           	FNCALL	_main,_command
    46                           	FNCALL	_main,_lcd_display
    47                           	FNCALL	_main,_adc_conversion
    48                           	FNCALL	_main,_hexa_val
    49                           	FNCALL	_main,_gprs
    50                           	FNCALL	_gprs,_serial_display
    51                           	FNCALL	_gprs,_serial_out
    52                           	FNCALL	_gprs,_gprs1
    53                           	FNCALL	_gprs1,_serial_display
    54                           	FNCALL	_gprs1,_serial_out
    55                           	FNCALL	_gprs1,_command
    56                           	FNCALL	_gprs1,_lcd_display
    57                           	FNCALL	_hexa_val,___lwdiv
    58                           	FNCALL	_hexa_val,___lwmod
    59                           	FNCALL	_hexa_val,_lcd_data
    60                           	FNCALL	_lcd_display,_lcd_data
    61                           	FNCALL	_lcd_init,_command
    62                           	FNCALL	_gsm_init,_serial_display
    63                           	FNCALL	_gsm_init,_serial_out
    64                           	FNCALL	_serial_display,_serial_out
    65                           	FNROOT	_main
    66                           	FNCALL	intlevel1,_funct
    67                           	global	intlevel1
    68                           	FNROOT	intlevel1
    69                           	global	_r
    70                           	global	_s
    71                           	global	_a
    72                           	global	_c
    73                           	global	_d
    74                           	global	_j
    75                           	global	_k
    76                           	global	_l
    77                           	global	_m
    78                           	global	_n
    79                           	global	_b
    80                           	global	_p
    81                           	global	_y
    82                           	global	_ADCON0
    83                           psect	text516,local,class=CODE,delta=2
    84                           global __ptext516
    85  0000                     __ptext516:
    86  001F                     _ADCON0	set	31
    87                           	global	_ADRESH
    88  001E                     _ADRESH	set	30
    89                           	global	_PORTA
    90  0005                     _PORTA	set	5
    91                           	global	_PORTB
    92  0006                     _PORTB	set	6
    93                           	global	_PORTC
    94  0007                     _PORTC	set	7
    95                           	global	_PORTD
    96  0008                     _PORTD	set	8
    97                           	global	_PORTE
    98  0009                     _PORTE	set	9
    99                           	global	_RCREG
   100  001A                     _RCREG	set	26
   101                           	global	_TXREG
   102  0019                     _TXREG	set	25
   103                           	global	_ADGO
   104  00FA                     _ADGO	set	250
   105                           	global	_CREN
   106  00C4                     _CREN	set	196
   107                           	global	_GIE
   108  005F                     _GIE	set	95
   109                           	global	_PEIE
   110  005E                     _PEIE	set	94
   111                           	global	_RA2
   112  002A                     _RA2	set	42
   113                           	global	_RA5
   114  002D                     _RA5	set	45
   115                           	global	_RCIF
   116  0065                     _RCIF	set	101
   117                           	global	_RE0
   118  0048                     _RE0	set	72
   119                           	global	_SPEN
   120  00C7                     _SPEN	set	199
   121                           	global	_TXIF
   122  0064                     _TXIF	set	100
   123                           	global	_ADCON1
   124  009F                     _ADCON1	set	159
   125                           	global	_ADRESL
   126  009E                     _ADRESL	set	158
   127                           	global	_SPBRG
   128  0099                     _SPBRG	set	153
   129                           	global	_TRISA
   130  0085                     _TRISA	set	133
   131                           	global	_TRISB
   132  0086                     _TRISB	set	134
   133                           	global	_TRISC
   134  0087                     _TRISC	set	135
   135                           	global	_TRISD
   136  0088                     _TRISD	set	136
   137                           	global	_TRISE
   138  0089                     _TRISE	set	137
   139                           	global	_BRGH
   140  04C2                     _BRGH	set	1218
   141                           	global	_RCIE
   142  0465                     _RCIE	set	1125
   143                           	global	_SYNC
   144  04C4                     _SYNC	set	1220
   145                           	global	_TXEN
   146  04C5                     _TXEN	set	1221
   147                           psect	strings,class=STRING,delta=2
   148                           global __pstrings
   149  0015                     __pstrings:
   150                           ;	global	stringdir,stringtab,__stringbase
   151  0015                     stringtab:
   152                           ;	String table - string pointers are 1 byte each
   153  0015                     stringcode:stringdir:
      + 0015                     stringdir:	
   154  0015  3000               movlw high(stringdir)
   155  0016  008A               movwf pclath
   156  0017  0804               movf fsr,w
   157  0018  0A84               incf fsr
   158  0019  0782               	addwf pc
   159  001A                     __stringbase:
   160  001A  3400               	retlw	0
   161                           psect	strings
   162                           	
   163  001B                     STR_9:	
   164  001B  346C               	retlw	108	;'l'
   165  001C  3469               	retlw	105	;'i'
   166  001D  3476               	retlw	118	;'v'
   167  001E  3465               	retlw	101	;'e'
   168  001F  346D               	retlw	109	;'m'
   169  0020  346F               	retlw	111	;'o'
   170  0021  346E               	retlw	110	;'n'
   171  0022  3469               	retlw	105	;'i'
   172  0023  3474               	retlw	116	;'t'
   173  0024  346F               	retlw	111	;'o'
   174  0025  3472               	retlw	114	;'r'
   175  0026  3469               	retlw	105	;'i'
   176  0027  346E               	retlw	110	;'n'
   177  0028  3467               	retlw	103	;'g'
   178  0029  342E               	retlw	46	;'.'
   179  002A  3463               	retlw	99	;'c'
   180  002B  346F               	retlw	111	;'o'
   181  002C  342E               	retlw	46	;'.'
   182  002D  3469               	retlw	105	;'i'
   183  002E  346E               	retlw	110	;'n'
   184  002F  342F               	retlw	47	;'/'
   185  0030  3461               	retlw	97	;'a'
   186  0031  3471               	retlw	113	;'q'
   187  0032  346D               	retlw	109	;'m'
   188  0033  3431               	retlw	49	;'1'
   189  0034  342F               	retlw	47	;'/'
   190  0035  3469               	retlw	105	;'i'
   191  0036  346E               	retlw	110	;'n'
   192  0037  3473               	retlw	115	;'s'
   193  0038  3465               	retlw	101	;'e'
   194  0039  3472               	retlw	114	;'r'
   195  003A  3474               	retlw	116	;'t'
   196  003B  342E               	retlw	46	;'.'
   197  003C  3470               	retlw	112	;'p'
   198  003D  3468               	retlw	104	;'h'
   199  003E  3470               	retlw	112	;'p'
   200  003F  343F               	retlw	63	;'?'
   201  0040  3400               	retlw	0
   202                           psect	strings
   203                           	
   204  0041                     STR_21:	
   205  0041  346C               	retlw	108	;'l'
   206  0042  3469               	retlw	105	;'i'
   207  0043  3476               	retlw	118	;'v'
   208  0044  3465               	retlw	101	;'e'
   209  0045  346D               	retlw	109	;'m'
   210  0046  346F               	retlw	111	;'o'
   211  0047  346E               	retlw	110	;'n'
   212  0048  3469               	retlw	105	;'i'
   213  0049  3474               	retlw	116	;'t'
   214  004A  346F               	retlw	111	;'o'
   215  004B  3472               	retlw	114	;'r'
   216  004C  3469               	retlw	105	;'i'
   217  004D  346E               	retlw	110	;'n'
   218  004E  3467               	retlw	103	;'g'
   219  004F  342E               	retlw	46	;'.'
   220  0050  3463               	retlw	99	;'c'
   221  0051  346F               	retlw	111	;'o'
   222  0052  342E               	retlw	46	;'.'
   223  0053  3469               	retlw	105	;'i'
   224  0054  346E               	retlw	110	;'n'
   225  0055  342F               	retlw	47	;'/'
   226  0056  3461               	retlw	97	;'a'
   227  0057  3471               	retlw	113	;'q'
   228  0058  346D               	retlw	109	;'m'
   229  0059  3431               	retlw	49	;'1'
   230  005A  342F               	retlw	47	;'/'
   231  005B  346D               	retlw	109	;'m'
   232  005C  346F               	retlw	111	;'o'
   233  005D  3475               	retlw	117	;'u'
   234  005E  3474               	retlw	116	;'t'
   235  005F  342E               	retlw	46	;'.'
   236  0060  3470               	retlw	112	;'p'
   237  0061  3468               	retlw	104	;'h'
   238  0062  3470               	retlw	112	;'p'
   239  0063  3400               	retlw	0
   240                           psect	strings
   241                           	
   242  0064                     STR_18:	
   243  0064  3441               	retlw	65	;'A'
   244  0065  3454               	retlw	84	;'T'
   245  0066  342B               	retlw	43	;'+'
   246  0067  3448               	retlw	72	;'H'
   247  0068  3454               	retlw	84	;'T'
   248  0069  3454               	retlw	84	;'T'
   249  006A  3450               	retlw	80	;'P'
   250  006B  3441               	retlw	65	;'A'
   251  006C  3443               	retlw	67	;'C'
   252  006D  3454               	retlw	84	;'T'
   253  006E  3449               	retlw	73	;'I'
   254  006F  344F               	retlw	79	;'O'
   255  0070  344E               	retlw	78	;'N'
   256  0071  343D               	retlw	61	;'='
   257  0072  3430               	retlw	48	;'0'
   258  0073  3400               	retlw	0
   259                           psect	strings
   260                           	
   261  0074                     STR_5:	
   262  0074  3441               	retlw	65	;'A'
   263  0075  3454               	retlw	84	;'T'
   264  0076  342B               	retlw	43	;'+'
   265  0077  3453               	retlw	83	;'S'
   266  0078  3441               	retlw	65	;'A'
   267  0079  3450               	retlw	80	;'P'
   268  007A  3442               	retlw	66	;'B'
   269  007B  3452               	retlw	82	;'R'
   270  007C  343D               	retlw	61	;'='
   271  007D  3431               	retlw	49	;'1'
   272  007E  342C               	retlw	44	;','
   273  007F  3431               	retlw	49	;'1'
   274  0080  3400               	retlw	0
   275                           psect	strings
   276                           	
   277  0081                     STR_7:	
   278  0081  3441               	retlw	65	;'A'
   279  0082  3454               	retlw	84	;'T'
   280  0083  342B               	retlw	43	;'+'
   281  0084  3448               	retlw	72	;'H'
   282  0085  3454               	retlw	84	;'T'
   283  0086  3454               	retlw	84	;'T'
   284  0087  3450               	retlw	80	;'P'
   285  0088  3450               	retlw	80	;'P'
   286  0089  3441               	retlw	65	;'A'
   287  008A  3452               	retlw	82	;'R'
   288  008B  3441               	retlw	65	;'A'
   289  008C  343D               	retlw	61	;'='
   290  008D  3400               	retlw	0
   291                           psect	strings
   292                           	
   293  008E                     STR_25:	
   294  008E  3441               	retlw	65	;'A'
   295  008F  3454               	retlw	84	;'T'
   296  0090  342B               	retlw	43	;'+'
   297  0091  3448               	retlw	72	;'H'
   298  0092  3454               	retlw	84	;'T'
   299  0093  3454               	retlw	84	;'T'
   300  0094  3450               	retlw	80	;'P'
   301  0095  3452               	retlw	82	;'R'
   302  0096  3445               	retlw	69	;'E'
   303  0097  3441               	retlw	65	;'A'
   304  0098  3444               	retlw	68	;'D'
   305  0099  3400               	retlw	0
   306                           psect	strings
   307                           	
   308  009A                     STR_6:	
   309  009A  3441               	retlw	65	;'A'
   310  009B  3454               	retlw	84	;'T'
   311  009C  342B               	retlw	43	;'+'
   312  009D  3448               	retlw	72	;'H'
   313  009E  3454               	retlw	84	;'T'
   314  009F  3454               	retlw	84	;'T'
   315  00A0  3450               	retlw	80	;'P'
   316  00A1  3449               	retlw	73	;'I'
   317  00A2  344E               	retlw	78	;'N'
   318  00A3  3449               	retlw	73	;'I'
   319  00A4  3454               	retlw	84	;'T'
   320  00A5  3400               	retlw	0
   321                           psect	strings
   322                           	
   323  00A6                     STR_4:	
   324  00A6  3441               	retlw	65	;'A'
   325  00A7  3454               	retlw	84	;'T'
   326  00A8  342B               	retlw	43	;'+'
   327  00A9  3443               	retlw	67	;'C'
   328  00AA  3452               	retlw	82	;'R'
   329  00AB  3445               	retlw	69	;'E'
   330  00AC  3447               	retlw	71	;'G'
   331  00AD  343F               	retlw	63	;'?'
   332  00AE  3400               	retlw	0
   333                           psect	strings
   334                           	
   335  00AF                     STR_15:	
   336  00AF  3462               	retlw	98	;'b'
   337  00B0  3475               	retlw	117	;'u'
   338  00B1  3474               	retlw	116	;'t'
   339  00B2  3461               	retlw	97	;'a'
   340  00B3  346E               	retlw	110	;'n'
   341  00B4  3465               	retlw	101	;'e'
   342  00B5  343D               	retlw	61	;'='
   343  00B6  3400               	retlw	0
   344                           psect	strings
   345                           	
   346  00B7                     STR_1:	
   347  00B7  3456               	retlw	86	;'V'
   348  00B8  3441               	retlw	65	;'A'
   349  00B9  344C               	retlw	76	;'L'
   350  00BA  3420               	retlw	32	;' '
   351  00BB  343A               	retlw	58	;':'
   352  00BC  3400               	retlw	0
   353                           psect	strings
   354                           	
   355  00BD                     STR_14:	
   356  00BD  346D               	retlw	109	;'m'
   357  00BE  3465               	retlw	101	;'e'
   358  00BF  3474               	retlw	116	;'t'
   359  00C0  3468               	retlw	104	;'h'
   360  00C1  343D               	retlw	61	;'='
   361  00C2  3400               	retlw	0
   362                           psect	strings
   363                           	
   364  00C3                     STR_11:	
   365  00C3  3463               	retlw	99	;'c'
   366  00C4  346F               	retlw	111	;'o'
   367  00C5  3432               	retlw	50	;'2'
   368  00C6  343D               	retlw	61	;'='
   369  00C7  3400               	retlw	0
   370                           psect	strings
   371                           	
   372  00C8                     STR_26:	
   373  00C8  344F               	retlw	79	;'O'
   374  00C9  344E               	retlw	78	;'N'
   375  00CA  3420               	retlw	32	;' '
   376  00CB  3400               	retlw	0
   377                           psect	strings
   378                           	
   379  00CC                     STR_13:	
   380  00CC  346F               	retlw	111	;'o'
   381  00CD  3468               	retlw	104	;'h'
   382  00CE  343D               	retlw	61	;'='
   383  00CF  3400               	retlw	0
   384                           psect	strings
   385                           	
   386  00D0                     STR_12:	
   387  00D0  3463               	retlw	99	;'c'
   388  00D1  346F               	retlw	111	;'o'
   389  00D2  343D               	retlw	61	;'='
   390  00D3  3400               	retlw	0
   391                           psect	strings
   392                           	
   393  00D4                     STR_17:	
   394  00D4  3443               	retlw	67	;'C'
   395  00D5  3449               	retlw	73	;'I'
   396  00D6  3444               	retlw	68	;'D'
   397  00D7  3400               	retlw	0
   398                           psect	strings
   399                           	
   400  00D8                     STR_27:	
   401  00D8  344F               	retlw	79	;'O'
   402  00D9  3446               	retlw	70	;'F'
   403  00DA  3446               	retlw	70	;'F'
   404  00DB  3400               	retlw	0
   405                           psect	strings
   406                           	
   407  00DC                     STR_8:	
   408  00DC  3455               	retlw	85	;'U'
   409  00DD  3452               	retlw	82	;'R'
   410  00DE  344C               	retlw	76	;'L'
   411  00DF  3400               	retlw	0
   412                           psect	strings
   413                           	
   414  00E0                     STR_2:	
   415  00E0  3441               	retlw	65	;'A'
   416  00E1  3454               	retlw	84	;'T'
   417  00E2  3400               	retlw	0
   418                           psect	strings
   419  00E0                     STR_3	equ	STR_2+0
   420  00DC                     STR_20	equ	STR_8+0
   421  00D4                     STR_23	equ	STR_17+0
   422  0081                     STR_16	equ	STR_7+0
   423  0081                     STR_19	equ	STR_7+0
   424  0081                     STR_22	equ	STR_7+0
   425  00C4                     STR_10	equ	STR_11+1
   426  0064                     STR_24	equ	STR_18+0
   427                           	file	"aqm.c.as"
   428                           	line	#
   429                           psect cinit,class=CODE,delta=2
   430                           global start_initialization
   431  0685                     start_initialization:
   432                           
   433                           psect	bssCOMMON,class=COMMON,space=1
   434                           global __pbssCOMMON
   435  0075                     __pbssCOMMON:
   436  0075                     _b:
   437  0075                            ds      2
   438                           
   439  0077                     _p:
   440  0077                            ds      1
   441                           
   442  0078                     _y:
   443  0078                            ds      1
   444                           
   445                           psect	bssBANK0,class=BANK0,space=1
   446                           global __pbssBANK0
   447  0020                     __pbssBANK0:
   448  0020                     _r:
   449  0020                            ds      5
   450                           
   451  0025                     _s:
   452  0025                            ds      5
   453                           
   454  002A                     _a:
   455  002A                            ds      2
   456                           
   457  002C                     _c:
   458  002C                            ds      2
   459                           
   460  002E                     _d:
   461  002E                            ds      2
   462                           
   463  0030                     _j:
   464  0030                            ds      2
   465                           
   466  0032                     _k:
   467  0032                            ds      2
   468                           
   469  0034                     _l:
   470  0034                            ds      2
   471                           
   472  0036                     _m:
   473  0036                            ds      2
   474                           
   475  0038                     _n:
   476  0038                            ds      2
   477                           
   478                           psect clrtext,class=CODE,delta=2
   479                           global clear_ram
   480                           ;	Called with FSR containing the base address, and
   481                           ;	W with the last address+1
   482  06A2                     clear_ram:
   483  06A2  0064               	clrwdt			;clear the watchdog before getting into this loop
   484  06A3                     clrloop:
   485  06A3  0180               	clrf	indf		;clear RAM location pointed to by FSR
   486  06A4  0A84               	incf	fsr,f		;increment pointer
   487  06A5  0604               	xorwf	fsr,w		;XOR with final address
   488  06A6  1903               	btfsc	status,2	;have we reached the end yet?
   489  06A7  3400               	retlw	0		;all done for this memory range, return
   490  06A8  0604               	xorwf	fsr,w		;XOR again to restore value
   491  06A9  2EA3               	goto	clrloop		;do the next byte
   492                           
   493                           ; Clear objects allocated to COMMON
   494                           psect cinit,class=CODE,delta=2
   495  0685  01F5               	clrf	((__pbssCOMMON)+0)&07Fh
   496  0686  01F6               	clrf	((__pbssCOMMON)+1)&07Fh
   497  0687  01F7               	clrf	((__pbssCOMMON)+2)&07Fh
   498  0688  01F8               	clrf	((__pbssCOMMON)+3)&07Fh
   499                           ; Clear objects allocated to BANK0
   500                           psect cinit,class=CODE,delta=2
   501  0689  1383               	bcf	status, 7	;select IRP bank0
   502  068A  3020               	movlw	low(__pbssBANK0)
   503  068B  0084               	movwf	fsr
   504  068C  303A               	movlw	low((__pbssBANK0)+01Ah)
   505  068D  120A  118A  26A2   	fcall	clear_ram
              120A  118A         
   506                           psect cinit,class=CODE,delta=2
   507                           global end_of_initialization
   508                           
   509                           ;End of C runtime variable initialization code
   510                           
   511  0692                     end_of_initialization:
   512  0692  0183               clrf status
   513  0693  120A  118A  2C52   ljmp _main	;jump to C main() function
   514                           psect	cstackCOMMON,class=COMMON,space=1
   515                           global __pcstackCOMMON
   516  0070                     __pcstackCOMMON:
   517                           	global	?_serial_init
   518  0070                     ?_serial_init:	; 0 bytes @ 0x0
   519                           	global	?_gsm_init
   520  0070                     ?_gsm_init:	; 0 bytes @ 0x0
   521                           	global	?_lcd_init
   522  0070                     ?_lcd_init:	; 0 bytes @ 0x0
   523                           	global	?_command
   524  0070                     ?_command:	; 0 bytes @ 0x0
   525                           	global	?_lcd_display
   526  0070                     ?_lcd_display:	; 0 bytes @ 0x0
   527                           	global	?_adc_conversion
   528  0070                     ?_adc_conversion:	; 0 bytes @ 0x0
   529                           	global	?_gprs
   530  0070                     ?_gprs:	; 0 bytes @ 0x0
   531                           	global	?_serial_display
   532  0070                     ?_serial_display:	; 0 bytes @ 0x0
   533                           	global	?_serial_out
   534  0070                     ?_serial_out:	; 0 bytes @ 0x0
   535                           	global	?_gprs1
   536  0070                     ?_gprs1:	; 0 bytes @ 0x0
   537                           	global	?_lcd_data
   538  0070                     ?_lcd_data:	; 0 bytes @ 0x0
   539                           	global	?_main
   540  0070                     ?_main:	; 0 bytes @ 0x0
   541                           	global	?_funct
   542  0070                     ?_funct:	; 0 bytes @ 0x0
   543                           	global	??_funct
   544  0070                     ??_funct:	; 0 bytes @ 0x0
   545  0070                     	ds	5
   546                           	global	??_serial_init
   547  0075                     ??_serial_init:	; 0 bytes @ 0x5
   548                           	global	??_lcd_init
   549  0075                     ??_lcd_init:	; 0 bytes @ 0x5
   550                           	global	??_hexa_val
   551  0075                     ??_hexa_val:	; 0 bytes @ 0x5
   552                           	global	??_serial_out
   553  0075                     ??_serial_out:	; 0 bytes @ 0x5
   554                           psect	cstackBANK0,class=BANK0,space=1
   555                           global __pcstackBANK0
   556  003A                     __pcstackBANK0:
   557                           	global	??_command
   558  003A                     ??_command:	; 0 bytes @ 0x0
   559                           	global	??_adc_conversion
   560  003A                     ??_adc_conversion:	; 0 bytes @ 0x0
   561                           	global	??_lcd_data
   562  003A                     ??_lcd_data:	; 0 bytes @ 0x0
   563                           	global	?___lwdiv
   564  003A                     ?___lwdiv:	; 2 bytes @ 0x0
   565                           	global	?___lwmod
   566  003A                     ?___lwmod:	; 2 bytes @ 0x0
   567                           	global	serial_out@z
   568  003A                     serial_out@z:	; 1 bytes @ 0x0
   569                           	global	___lwdiv@divisor
   570  003A                     ___lwdiv@divisor:	; 2 bytes @ 0x0
   571                           	global	___lwmod@divisor
   572  003A                     ___lwmod@divisor:	; 2 bytes @ 0x0
   573  003A                     	ds	1
   574                           	global	??_serial_display
   575  003B                     ??_serial_display:	; 0 bytes @ 0x1
   576  003B                     	ds	1
   577                           	global	serial_display@w
   578  003C                     serial_display@w:	; 1 bytes @ 0x2
   579                           	global	command@com
   580  003C                     command@com:	; 1 bytes @ 0x2
   581                           	global	lcd_data@D
   582  003C                     lcd_data@D:	; 1 bytes @ 0x2
   583                           	global	___lwdiv@dividend
   584  003C                     ___lwdiv@dividend:	; 2 bytes @ 0x2
   585                           	global	___lwmod@dividend
   586  003C                     ___lwmod@dividend:	; 2 bytes @ 0x2
   587  003C                     	ds	1
   588                           	global	??_gsm_init
   589  003D                     ??_gsm_init:	; 0 bytes @ 0x3
   590                           	global	??_lcd_display
   591  003D                     ??_lcd_display:	; 0 bytes @ 0x3
   592  003D                     	ds	1
   593                           	global	??___lwdiv
   594  003E                     ??___lwdiv:	; 0 bytes @ 0x4
   595                           	global	??___lwmod
   596  003E                     ??___lwmod:	; 0 bytes @ 0x4
   597  003E                     	ds	1
   598                           	global	lcd_display@word
   599  003F                     lcd_display@word:	; 1 bytes @ 0x5
   600                           	global	___lwdiv@counter
   601  003F                     ___lwdiv@counter:	; 1 bytes @ 0x5
   602                           	global	___lwmod@counter
   603  003F                     ___lwmod@counter:	; 1 bytes @ 0x5
   604  003F                     	ds	1
   605                           	global	??_gprs1
   606  0040                     ??_gprs1:	; 0 bytes @ 0x6
   607                           	global	___lwdiv@quotient
   608  0040                     ___lwdiv@quotient:	; 2 bytes @ 0x6
   609  0040                     	ds	2
   610                           	global	?_hexa_val
   611  0042                     ?_hexa_val:	; 0 bytes @ 0x8
   612                           	global	hexa_val@val
   613  0042                     hexa_val@val:	; 2 bytes @ 0x8
   614  0042                     	ds	1
   615                           	global	??_gprs
   616  0043                     ??_gprs:	; 0 bytes @ 0x9
   617  0043                     	ds	3
   618                           	global	??_main
   619  0046                     ??_main:	; 0 bytes @ 0xC
   620  0046                     	ds	3
   621 ;;Data sizes: Strings 200, constant 0, data 0, bss 30, persistent 0 stack 0
   622 ;;Auto spaces:   Size  Autos    Used
   623 ;; COMMON          14      5       9
   624 ;; BANK0           80     15      41
   625 ;; BANK1           80      0       0
   626 ;; BANK3           96      0       0
   627 ;; BANK2           96      0       0
   628                           
   629 ;;
   630 ;; Pointer list with targets:
   631                           
   632 ;; ?___lwmod	unsigned int  size(1) Largest target is 0
   633 ;;
   634 ;; ?___lwdiv	unsigned int  size(1) Largest target is 0
   635 ;;
   636 ;; lcd_display@word	PTR const unsigned char  size(1) Largest target is 6
   637 ;;		 -> STR_27(CODE[4]), STR_26(CODE[4]), STR_1(CODE[6]), 
   638 ;;
   639 ;; serial_display@w	PTR const unsigned char  size(1) Largest target is 38
   640 ;;		 -> STR_25(CODE[12]), STR_24(CODE[16]), STR_23(CODE[4]), STR_22(CODE[13]), 
   641 ;;		 -> STR_21(CODE[35]), STR_20(CODE[4]), STR_19(CODE[13]), STR_18(CODE[16]), 
   642 ;;		 -> STR_17(CODE[4]), STR_16(CODE[13]), STR_15(CODE[8]), STR_14(CODE[6]), 
   643 ;;		 -> STR_13(CODE[4]), STR_12(CODE[4]), STR_11(CODE[5]), STR_10(CODE[4]), 
   644 ;;		 -> STR_9(CODE[38]), STR_8(CODE[4]), STR_7(CODE[13]), STR_6(CODE[12]), 
   645 ;;		 -> STR_5(CODE[13]), STR_4(CODE[9]), STR_3(CODE[3]), STR_2(CODE[3]), 
   646 ;;
   647                           
   648                           
   649 ;;
   650 ;; Critical Paths under _main in COMMON
   651 ;;
   652 ;;   None.
   653 ;;
   654 ;; Critical Paths under _funct in COMMON
   655 ;;
   656 ;;   None.
   657 ;;
   658 ;; Critical Paths under _main in BANK0
   659 ;;
   660 ;;   _main->_gprs
   661 ;;   _gprs->_gprs1
   662 ;;   _gprs1->_lcd_display
   663 ;;   _hexa_val->___lwdiv
   664 ;;   _lcd_display->_lcd_data
   665 ;;   _lcd_init->_command
   666 ;;   _gsm_init->_serial_display
   667 ;;   _serial_display->_serial_out
   668 ;;
   669 ;; Critical Paths under _funct in BANK0
   670 ;;
   671 ;;   None.
   672 ;;
   673 ;; Critical Paths under _main in BANK1
   674 ;;
   675 ;;   None.
   676 ;;
   677 ;; Critical Paths under _funct in BANK1
   678 ;;
   679 ;;   None.
   680 ;;
   681 ;; Critical Paths under _main in BANK3
   682 ;;
   683 ;;   None.
   684 ;;
   685 ;; Critical Paths under _funct in BANK3
   686 ;;
   687 ;;   None.
   688 ;;
   689 ;; Critical Paths under _main in BANK2
   690 ;;
   691 ;;   None.
   692 ;;
   693 ;; Critical Paths under _funct in BANK2
   694 ;;
   695 ;;   None.
   696                           
   697 ;;
   698 ;;Main: autosize = 0, tempsize = 3, incstack = 0, save=0
   699 ;;
   700                           
   701 ;;
   702 ;;Call Graph Tables:
   703 ;;
   704 ;; ---------------------------------------------------------------------------------
   705 ;; (Depth) Function   	        Calls       Base Space   Used Autos Params    Refs
   706 ;; ---------------------------------------------------------------------------------
   707 ;; (0) _main                                                 3     3      0    1232
   708 ;;                                             12 BANK0      3     3      0
   709 ;;                        _serial_init
   710 ;;                           _gsm_init
   711 ;;                           _lcd_init
   712 ;;                            _command
   713 ;;                        _lcd_display
   714 ;;                     _adc_conversion
   715 ;;                           _hexa_val
   716 ;;                               _gprs
   717 ;; ---------------------------------------------------------------------------------
   718 ;; (1) _gprs                                                 3     3      0     381
   719 ;;                                              9 BANK0      3     3      0
   720 ;;                     _serial_display
   721 ;;                         _serial_out
   722 ;;                              _gprs1
   723 ;; ---------------------------------------------------------------------------------
   724 ;; (2) _gprs1                                                3     3      0     254
   725 ;;                                              6 BANK0      3     3      0
   726 ;;                     _serial_display
   727 ;;                         _serial_out
   728 ;;                            _command
   729 ;;                        _lcd_display
   730 ;; ---------------------------------------------------------------------------------
   731 ;; (1) _hexa_val                                             2     0      2     566
   732 ;;                                              8 BANK0      2     0      2
   733 ;;                            ___lwdiv
   734 ;;                            ___lwmod
   735 ;;                           _lcd_data
   736 ;; ---------------------------------------------------------------------------------
   737 ;; (3) _lcd_display                                          3     3      0      96
   738 ;;                                              3 BANK0      3     3      0
   739 ;;                           _lcd_data
   740 ;; ---------------------------------------------------------------------------------
   741 ;; (1) _lcd_init                                             0     0      0      31
   742 ;;                            _command
   743 ;; ---------------------------------------------------------------------------------
   744 ;; (1) _gsm_init                                             3     3      0     127
   745 ;;                                              3 BANK0      3     3      0
   746 ;;                     _serial_display
   747 ;;                         _serial_out
   748 ;; ---------------------------------------------------------------------------------
   749 ;; (4) _lcd_data                                             3     3      0      31
   750 ;;                                              0 BANK0      3     3      0
   751 ;; ---------------------------------------------------------------------------------
   752 ;; (3) _serial_display                                       2     2      0      96
   753 ;;                                              1 BANK0      2     2      0
   754 ;;                         _serial_out
   755 ;; ---------------------------------------------------------------------------------
   756 ;; (3) _command                                              3     3      0      31
   757 ;;                                              0 BANK0      3     3      0
   758 ;; ---------------------------------------------------------------------------------
   759 ;; (2) ___lwmod                                              6     2      4     232
   760 ;;                                              0 BANK0      6     2      4
   761 ;; ---------------------------------------------------------------------------------
   762 ;; (2) ___lwdiv                                              8     4      4     241
   763 ;;                                              0 BANK0      8     4      4
   764 ;; ---------------------------------------------------------------------------------
   765 ;; (3) _serial_out                                           1     1      0      31
   766 ;;                                              0 BANK0      1     1      0
   767 ;; ---------------------------------------------------------------------------------
   768 ;; (1) _adc_conversion                                       2     2      0       0
   769 ;;                                              0 BANK0      2     2      0
   770 ;; ---------------------------------------------------------------------------------
   771 ;; (1) _serial_init                                          0     0      0       0
   772 ;; ---------------------------------------------------------------------------------
   773 ;; Estimated maximum stack depth 4
   774 ;; ---------------------------------------------------------------------------------
   775 ;; (Depth) Function   	        Calls       Base Space   Used Autos Params    Refs
   776 ;; ---------------------------------------------------------------------------------
   777 ;; (5) _funct                                                5     5      0       0
   778 ;;                                              0 COMMON     5     5      0
   779 ;; ---------------------------------------------------------------------------------
   780 ;; Estimated maximum stack depth 5
   781 ;; ---------------------------------------------------------------------------------
   782                           
   783 ;; Call Graph Graphs:
   784                           
   785 ;; _main (ROOT)
   786 ;;   _serial_init
   787 ;;   _gsm_init
   788 ;;     _serial_display
   789 ;;       _serial_out
   790 ;;     _serial_out
   791 ;;   _lcd_init
   792 ;;     _command
   793 ;;   _command
   794 ;;   _lcd_display
   795 ;;     _lcd_data
   796 ;;   _adc_conversion
   797 ;;   _hexa_val
   798 ;;     ___lwdiv
   799 ;;     ___lwmod
   800 ;;     _lcd_data
   801 ;;   _gprs
   802 ;;     _serial_display
   803 ;;       _serial_out
   804 ;;     _serial_out
   805 ;;     _gprs1
   806 ;;       _serial_display
   807 ;;         _serial_out
   808 ;;       _serial_out
   809 ;;       _command
   810 ;;       _lcd_display
   811 ;;         _lcd_data
   812 ;;
   813 ;; _funct (ROOT)
   814 ;;
   815                           
   816 ;; Address spaces:
   817                           
   818 ;;Name               Size   Autos  Total    Cost      Usage
   819 ;;BITCOMMON            E      0       0       0        0.0%
   820 ;;EEDATA             100      0       0       0        0.0%
   821 ;;NULL                 0      0       0       0        0.0%
   822 ;;CODE                 0      0       0       0        0.0%
   823 ;;COMMON               E      5       9       1       64.3%
   824 ;;BITSFR0              0      0       0       1        0.0%
   825 ;;SFR0                 0      0       0       1        0.0%
   826 ;;BITSFR1              0      0       0       2        0.0%
   827 ;;SFR1                 0      0       0       2        0.0%
   828 ;;STACK                0      0       4       2        0.0%
   829 ;;ABS                  0      0      32       3        0.0%
   830 ;;BITBANK0            50      0       0       4        0.0%
   831 ;;BITSFR3              0      0       0       4        0.0%
   832 ;;SFR3                 0      0       0       4        0.0%
   833 ;;BANK0               50      F      29       5       51.3%
   834 ;;BITSFR2              0      0       0       5        0.0%
   835 ;;SFR2                 0      0       0       5        0.0%
   836 ;;BITBANK1            50      0       0       6        0.0%
   837 ;;BANK1               50      0       0       7        0.0%
   838 ;;BITBANK3            60      0       0       8        0.0%
   839 ;;BANK3               60      0       0       9        0.0%
   840 ;;BITBANK2            60      0       0      10        0.0%
   841 ;;BANK2               60      0       0      11        0.0%
   842 ;;DATA                 0      0      36      12        0.0%
   843                           
   844                           	global	_main
   845                           psect	maintext,global,class=CODE,delta=2
   846                           global __pmaintext
   847  0452                     __pmaintext:
   848                           
   849 ;; *************** function _main *****************
   850 ;; Defined at:
   851 ;;		line 28 in file "C:\Users\ADMIN\Desktop\aqm\aqm.c"
   852 ;; Parameters:    Size  Location     Type
   853 ;;		None
   854 ;; Auto vars:     Size  Location     Type
   855 ;;		None
   856 ;; Return value:  Size  Location     Type
   857 ;;		None               void
   858 ;; Registers used:
   859 ;;		wreg, fsr0l, fsr0h, status,2, status,0, btemp+1, pclath, cstack
   860 ;; Tracked objects:
   861 ;;		On entry : 17F/0
   862 ;;		On exit  : 0/0
   863 ;;		Unchanged: 0/0
   864 ;; Data sizes:     COMMON   BANK0   BANK1   BANK3   BANK2
   865 ;;      Params:         0       0       0       0       0
   866 ;;      Locals:         0       0       0       0       0
   867 ;;      Temps:          0       3       0       0       0
   868 ;;      Totals:         0       3       0       0       0
   869 ;;Total ram usage:        3 bytes
   870 ;; Hardware stack levels required when called:    5
   871 ;; This function calls:
   872 ;;		_serial_init
   873 ;;		_gsm_init
   874 ;;		_lcd_init
   875 ;;		_command
   876 ;;		_lcd_display
   877 ;;		_adc_conversion
   878 ;;		_hexa_val
   879 ;;		_gprs
   880 ;; This function is called by:
   881 ;;		Startup code after reset
   882 ;; This function uses a non-reentrant model
   883 ;;
   884                           psect	maintext
   885                           	file	"C:\Users\ADMIN\Desktop\aqm\aqm.c"
   886                           	line	28
   887                           	global	__size_of_main
   888  0076                     	__size_of_main	equ	__end_of_main-_main
   889                           	
   890  0452                     _main:	
   891                           	opt	stack 3
   892                           ; Regs used in _main: [wreg-fsr0h+status,2+status,0+btemp+1+pclath+cstack]
   893                           	line	29
   894                           	
   895  0452                     l2815:	
   896                           ;aqm.c: 29: ADCON1=0X8E;
   897  0452  308E               	movlw	(08Eh)
   898  0453  1683               	bsf	status, 5	;RP0=1, select bank1
   899  0454  1303               	bcf	status, 6	;RP1=0, select bank1
   900  0455  009F               	movwf	(159)^080h	;volatile
   901                           	line	30
   902                           	
   903  0456                     l2817:	
   904                           ;aqm.c: 30: TRISB=0x00;
   905  0456  0186               	clrf	(134)^080h	;volatile
   906                           	line	31
   907                           	
   908  0457                     l2819:	
   909                           ;aqm.c: 31: PORTB=0x00;
   910  0457  1283               	bcf	status, 5	;RP0=0, select bank0
   911  0458  1303               	bcf	status, 6	;RP1=0, select bank0
   912  0459  0186               	clrf	(6)	;volatile
   913                           	line	32
   914                           ;aqm.c: 32: TRISA=0x01;
   915  045A  3001               	movlw	(01h)
   916  045B  1683               	bsf	status, 5	;RP0=1, select bank1
   917  045C  1303               	bcf	status, 6	;RP1=0, select bank1
   918  045D  0085               	movwf	(133)^080h	;volatile
   919                           	line	33
   920                           	
   921  045E                     l2821:	
   922                           ;aqm.c: 33: PORTA=0x00;
   923  045E  1283               	bcf	status, 5	;RP0=0, select bank0
   924  045F  1303               	bcf	status, 6	;RP1=0, select bank0
   925  0460  0185               	clrf	(5)	;volatile
   926                           	line	34
   927                           	
   928  0461                     l2823:	
   929                           ;aqm.c: 34: TRISD=0x00;
   930  0461  1683               	bsf	status, 5	;RP0=1, select bank1
   931  0462  1303               	bcf	status, 6	;RP1=0, select bank1
   932  0463  0188               	clrf	(136)^080h	;volatile
   933                           	line	35
   934                           	
   935  0464                     l2825:	
   936                           ;aqm.c: 35: PORTD=0x00;
   937  0464  1283               	bcf	status, 5	;RP0=0, select bank0
   938  0465  1303               	bcf	status, 6	;RP1=0, select bank0
   939  0466  0188               	clrf	(8)	;volatile
   940                           	line	36
   941                           	
   942  0467                     l2827:	
   943                           ;aqm.c: 36: TRISC=0x83;
   944  0467  3083               	movlw	(083h)
   945  0468  1683               	bsf	status, 5	;RP0=1, select bank1
   946  0469  1303               	bcf	status, 6	;RP1=0, select bank1
   947  046A  0087               	movwf	(135)^080h	;volatile
   948                           	line	37
   949                           ;aqm.c: 37: PORTC=0x00;
   950  046B  1283               	bcf	status, 5	;RP0=0, select bank0
   951  046C  1303               	bcf	status, 6	;RP1=0, select bank0
   952  046D  0187               	clrf	(7)	;volatile
   953                           	line	38
   954                           ;aqm.c: 38: PORTE=0X00;
   955  046E  0189               	clrf	(9)	;volatile
   956                           	line	39
   957                           ;aqm.c: 39: TRISE=0X00;
   958  046F  1683               	bsf	status, 5	;RP0=1, select bank1
   959  0470  1303               	bcf	status, 6	;RP1=0, select bank1
   960  0471  0189               	clrf	(137)^080h	;volatile
   961                           	line	40
   962                           	
   963  0472                     l2829:	
   964                           ;aqm.c: 40: RA5=1;
   965  0472  1283               	bcf	status, 5	;RP0=0, select bank0
   966  0473  1303               	bcf	status, 6	;RP1=0, select bank0
   967  0474  1685               	bsf	(45/8),(45)&7
   968                           	line	41
   969                           	
   970  0475                     l2831:	
   971                           ;aqm.c: 41: serial_init();
   972  0475  120A  118A  2670   	fcall	_serial_init
              120A  118A         
   973                           	line	42
   974                           	
   975  047A                     l2833:	
   976                           ;aqm.c: 42: gsm_init();
   977  047A  120A  118A  23CC   	fcall	_gsm_init
              120A  118A         
   978                           	line	43
   979                           	
   980  047F                     l2835:	
   981                           ;aqm.c: 43: lcd_init();
   982  047F  120A  118A  2657   	fcall	_lcd_init
              120A  118A         
   983                           	line	44
   984                           	
   985  0484                     l2837:	
   986                           ;aqm.c: 44: command(0x80);
   987  0484  3080               	movlw	(080h)
   988  0485  120A  118A  263A   	fcall	_command
              120A  118A         
   989                           	line	45
   990                           	
   991  048A                     l2839:	
   992                           ;aqm.c: 45: lcd_display("VAL :");
   993  048A  309D               	movlw	((STR_1-__stringbase))&0ffh
   994  048B  120A  118A  259F   	fcall	_lcd_display
              120A  118A         
   995                           	line	46
   996                           	
   997  0490                     l2841:	
   998                           ;aqm.c: 46: command(0x87);
   999  0490  3087               	movlw	(087h)
  1000  0491  120A  118A  263A   	fcall	_command
              120A  118A         
  1001  0496  2C97               	goto	l2843
  1002                           	line	48
  1003                           ;aqm.c: 48: while(1){
  1004                           	
  1005  0497                     l611:	
  1006                           	line	49
  1007                           	
  1008  0497                     l2843:	
  1009                           ;aqm.c: 49: adc_conversion();
  1010  0497  120A  118A  2560   	fcall	_adc_conversion
              120A  118A         
  1011                           	line	50
  1012                           	
  1013  049C                     l2845:	
  1014                           ;aqm.c: 50: command(0x85);
  1015  049C  3085               	movlw	(085h)
  1016  049D  120A  118A  263A   	fcall	_command
              120A  118A         
  1017                           	line	51
  1018                           	
  1019  04A2                     l2847:	
  1020                           ;aqm.c: 51: hexa_val(c);
  1021  04A2  1283               	bcf	status, 5	;RP0=0, select bank0
  1022  04A3  1303               	bcf	status, 6	;RP1=0, select bank0
  1023  04A4  082D               	movf	(_c+1),w
  1024  04A5  01C3               	clrf	(?_hexa_val+1)
  1025  04A6  07C3               	addwf	(?_hexa_val+1)
  1026  04A7  082C               	movf	(_c),w
  1027  04A8  01C2               	clrf	(?_hexa_val)
  1028  04A9  07C2               	addwf	(?_hexa_val)
  1029                           
  1030  04AA  120A  118A  232F   	fcall	_hexa_val
              120A  118A         
  1031                           	line	52
  1032                           	
  1033  04AF                     l2849:	
  1034                           ;aqm.c: 52: _delay((unsigned long)((500)*(20e6/4000.0)));
  1035                           	opt asmopt_off
  1036  04AF  300D               movlw  13
  1037  04B0  1283               	bcf	status, 5	;RP0=0, select bank0
  1038  04B1  1303               	bcf	status, 6	;RP1=0, select bank0
  1039  04B2  00C8               movwf	((??_main+0)+0+2),f
  1040  04B3  30A3               movlw	163
  1041  04B4  00C7               movwf	((??_main+0)+0+1),f
  1042  04B5  30BD               	movlw	189
  1043  04B6  00C6               movwf	((??_main+0)+0),f
  1044  04B7                     u3077:
  1045  04B7  0BC6               	decfsz	((??_main+0)+0),f
  1046  04B8  2CB7               	goto	u3077
  1047  04B9  0BC7               	decfsz	((??_main+0)+0+1),f
  1048  04BA  2CB7               	goto	u3077
  1049  04BB  0BC8               	decfsz	((??_main+0)+0+2),f
  1050  04BC  2CB7               	goto	u3077
  1051  04BD  0064               	clrwdt
  1052                           opt asmopt_on
  1053                           
  1054                           	line	53
  1055                           	
  1056  04BE                     l2851:	
  1057                           ;aqm.c: 53: gprs();
  1058  04BE  120A  118A  20E3   	fcall	_gprs
              120A  118A         
  1059  04C3  2C97               	goto	l2843
  1060                           	line	54
  1061                           	
  1062  04C4                     l612:	
  1063                           	line	48
  1064  04C4  2C97               	goto	l2843
  1065                           	
  1066  04C5                     l613:	
  1067                           	line	55
  1068                           	
  1069  04C5                     l614:	
  1070                           	global	start
  1071  04C5  120A  118A  2812   	ljmp	start
  1072                           	opt stack 0
  1073                           GLOBAL	__end_of_main
  1074  04C8                     	__end_of_main:
  1075 ;; =============== function _main ends ============
  1076                           
  1077                           	signat	_main,88
  1078                           	global	_gprs
  1079                           psect	text517,local,class=CODE,delta=2
  1080                           global __ptext517
  1081  00E3                     __ptext517:
  1082                           
  1083 ;; *************** function _gprs *****************
  1084 ;; Defined at:
  1085 ;;		line 89 in file "C:\Users\ADMIN\Desktop\aqm\aqm.c"
  1086 ;; Parameters:    Size  Location     Type
  1087 ;;		None
  1088 ;; Auto vars:     Size  Location     Type
  1089 ;;		None
  1090 ;; Return value:  Size  Location     Type
  1091 ;;		None               void
  1092 ;; Registers used:
  1093 ;;		wreg, fsr0l, fsr0h, status,2, status,0, pclath, cstack
  1094 ;; Tracked objects:
  1095 ;;		On entry : 0/0
  1096 ;;		On exit  : 0/0
  1097 ;;		Unchanged: 0/0
  1098 ;; Data sizes:     COMMON   BANK0   BANK1   BANK3   BANK2
  1099 ;;      Params:         0       0       0       0       0
  1100 ;;      Locals:         0       0       0       0       0
  1101 ;;      Temps:          0       3       0       0       0
  1102 ;;      Totals:         0       3       0       0       0
  1103 ;;Total ram usage:        3 bytes
  1104 ;; Hardware stack levels used:    1
  1105 ;; Hardware stack levels required when called:    4
  1106 ;; This function calls:
  1107 ;;		_serial_display
  1108 ;;		_serial_out
  1109 ;;		_gprs1
  1110 ;; This function is called by:
  1111 ;;		_main
  1112 ;; This function uses a non-reentrant model
  1113 ;;
  1114                           psect	text517
  1115                           	file	"C:\Users\ADMIN\Desktop\aqm\aqm.c"
  1116                           	line	89
  1117                           	global	__size_of_gprs
  1118  0167                     	__size_of_gprs	equ	__end_of_gprs-_gprs
  1119                           	
  1120  00E3                     _gprs:	
  1121                           	opt	stack 3
  1122                           ; Regs used in _gprs: [wreg-fsr0h+status,2+status,0+pclath+cstack]
  1123                           	line	90
  1124                           	
  1125  00E3                     l2735:	
  1126                           ;aqm.c: 90: serial_display("AT+HTTPPARA=");
  1127  00E3  3067               	movlw	((STR_7-__stringbase))&0ffh
  1128  00E4  120A  118A  25F8   	fcall	_serial_display
              120A  118A         
  1129                           	line	91
  1130                           	
  1131  00E9                     l2737:	
  1132                           ;aqm.c: 91: serial_out('"');
  1133  00E9  3022               	movlw	(022h)
  1134  00EA  120A  118A  2696   	fcall	_serial_out
              120A  118A         
  1135                           	line	92
  1136                           	
  1137  00EF                     l2739:	
  1138                           ;aqm.c: 92: serial_display("URL");
  1139  00EF  30C2               	movlw	((STR_8-__stringbase))&0ffh
  1140  00F0  120A  118A  25F8   	fcall	_serial_display
              120A  118A         
  1141                           	line	93
  1142                           ;aqm.c: 93: serial_out('"');
  1143  00F5  3022               	movlw	(022h)
  1144  00F6  120A  118A  2696   	fcall	_serial_out
              120A  118A         
  1145                           	line	94
  1146                           ;aqm.c: 94: serial_out(',');
  1147  00FB  302C               	movlw	(02Ch)
  1148  00FC  120A  118A  2696   	fcall	_serial_out
              120A  118A         
  1149                           	line	95
  1150                           ;aqm.c: 95: serial_out('"');
  1151  0101  3022               	movlw	(022h)
  1152  0102  120A  118A  2696   	fcall	_serial_out
              120A  118A         
  1153                           	line	97
  1154                           	
  1155  0107                     l2741:	
  1156                           ;aqm.c: 97: serial_display("livemonitoring.co.in/aqm1/insert.php?");
  1157  0107  3001               	movlw	((STR_9-__stringbase))&0ffh
  1158  0108  120A  118A  25F8   	fcall	_serial_display
              120A  118A         
  1159                           	line	98
  1160                           	
  1161  010D                     l2743:	
  1162                           ;aqm.c: 98: if(j >= 10 && j <= 20){
  1163  010D  3000               	movlw	high(0Ah)
  1164  010E  1283               	bcf	status, 5	;RP0=0, select bank0
  1165  010F  1303               	bcf	status, 6	;RP1=0, select bank0
  1166  0110  0231               	subwf	(_j+1),w
  1167  0111  300A               	movlw	low(0Ah)
  1168  0112  1903               	skipnz
  1169  0113  0230               	subwf	(_j),w
  1170  0114  1C03               	skipc
  1171  0115  2917               	goto	u2951
  1172  0116  2918               	goto	u2950
  1173  0117                     u2951:
  1174  0117  2928               	goto	l2749
  1175  0118                     u2950:
  1176                           	
  1177  0118                     l2745:	
  1178  0118  3000               	movlw	high(015h)
  1179  0119  0231               	subwf	(_j+1),w
  1180  011A  3015               	movlw	low(015h)
  1181  011B  1903               	skipnz
  1182  011C  0230               	subwf	(_j),w
  1183  011D  1803               	skipnc
  1184  011E  2920               	goto	u2961
  1185  011F  2921               	goto	u2960
  1186  0120                     u2961:
  1187  0120  2928               	goto	l2749
  1188  0121                     u2960:
  1189                           	line	99
  1190                           	
  1191  0121                     l2747:	
  1192                           ;aqm.c: 99: serial_display("o2=");
  1193  0121  30AA               	movlw	((STR_10-__stringbase))&0ffh
  1194  0122  120A  118A  25F8   	fcall	_serial_display
              120A  118A         
  1195                           	line	100
  1196                           ;aqm.c: 100: } else if(j >= 21 && j <= 30){
  1197  0127  29B4               	goto	l2779
  1198                           	
  1199  0128                     l623:	
  1200                           	
  1201  0128                     l2749:	
  1202  0128  3000               	movlw	high(015h)
  1203  0129  1283               	bcf	status, 5	;RP0=0, select bank0
  1204  012A  1303               	bcf	status, 6	;RP1=0, select bank0
  1205  012B  0231               	subwf	(_j+1),w
  1206  012C  3015               	movlw	low(015h)
  1207  012D  1903               	skipnz
  1208  012E  0230               	subwf	(_j),w
  1209  012F  1C03               	skipc
  1210  0130  2932               	goto	u2971
  1211  0131  2933               	goto	u2970
  1212  0132                     u2971:
  1213  0132  2943               	goto	l2755
  1214  0133                     u2970:
  1215                           	
  1216  0133                     l2751:	
  1217  0133  3000               	movlw	high(01Fh)
  1218  0134  0231               	subwf	(_j+1),w
  1219  0135  301F               	movlw	low(01Fh)
  1220  0136  1903               	skipnz
  1221  0137  0230               	subwf	(_j),w
  1222  0138  1803               	skipnc
  1223  0139  293B               	goto	u2981
  1224  013A  293C               	goto	u2980
  1225  013B                     u2981:
  1226  013B  2943               	goto	l2755
  1227  013C                     u2980:
  1228                           	line	101
  1229                           	
  1230  013C                     l2753:	
  1231                           ;aqm.c: 101: serial_display("co2=");
  1232  013C  30A9               	movlw	((STR_11-__stringbase))&0ffh
  1233  013D  120A  118A  25F8   	fcall	_serial_display
              120A  118A         
  1234                           	line	102
  1235                           ;aqm.c: 102: } else if(j >= 31 && j <= 40){
  1236  0142  29B4               	goto	l2779
  1237                           	
  1238  0143                     l625:	
  1239                           	
  1240  0143                     l2755:	
  1241  0143  3000               	movlw	high(01Fh)
  1242  0144  1283               	bcf	status, 5	;RP0=0, select bank0
  1243  0145  1303               	bcf	status, 6	;RP1=0, select bank0
  1244  0146  0231               	subwf	(_j+1),w
  1245  0147  301F               	movlw	low(01Fh)
  1246  0148  1903               	skipnz
  1247  0149  0230               	subwf	(_j),w
  1248  014A  1C03               	skipc
  1249  014B  294D               	goto	u2991
  1250  014C  294E               	goto	u2990
  1251  014D                     u2991:
  1252  014D  295E               	goto	l2761
  1253  014E                     u2990:
  1254                           	
  1255  014E                     l2757:	
  1256  014E  3000               	movlw	high(029h)
  1257  014F  0231               	subwf	(_j+1),w
  1258  0150  3029               	movlw	low(029h)
  1259  0151  1903               	skipnz
  1260  0152  0230               	subwf	(_j),w
  1261  0153  1803               	skipnc
  1262  0154  2956               	goto	u3001
  1263  0155  2957               	goto	u3000
  1264  0156                     u3001:
  1265  0156  295E               	goto	l2761
  1266  0157                     u3000:
  1267                           	line	103
  1268                           	
  1269  0157                     l2759:	
  1270                           ;aqm.c: 103: serial_display("co=");
  1271  0157  30B6               	movlw	((STR_12-__stringbase))&0ffh
  1272  0158  120A  118A  25F8   	fcall	_serial_display
              120A  118A         
  1273                           	line	104
  1274                           ;aqm.c: 104: } else if(j >= 41 && j <= 50){
  1275  015D  29B4               	goto	l2779
  1276                           	
  1277  015E                     l627:	
  1278                           	
  1279  015E                     l2761:	
  1280  015E  3000               	movlw	high(029h)
  1281  015F  1283               	bcf	status, 5	;RP0=0, select bank0
  1282  0160  1303               	bcf	status, 6	;RP1=0, select bank0
  1283  0161  0231               	subwf	(_j+1),w
  1284  0162  3029               	movlw	low(029h)
  1285  0163  1903               	skipnz
  1286  0164  0230               	subwf	(_j),w
  1287  0165  1C03               	skipc
  1288  0166  2968               	goto	u3011
  1289  0167  2969               	goto	u3010
  1290  0168                     u3011:
  1291  0168  2979               	goto	l2767
  1292  0169                     u3010:
  1293                           	
  1294  0169                     l2763:	
  1295  0169  3000               	movlw	high(033h)
  1296  016A  0231               	subwf	(_j+1),w
  1297  016B  3033               	movlw	low(033h)
  1298  016C  1903               	skipnz
  1299  016D  0230               	subwf	(_j),w
  1300  016E  1803               	skipnc
  1301  016F  2971               	goto	u3021
  1302  0170  2972               	goto	u3020
  1303  0171                     u3021:
  1304  0171  2979               	goto	l2767
  1305  0172                     u3020:
  1306                           	line	105
  1307                           	
  1308  0172                     l2765:	
  1309                           ;aqm.c: 105: serial_display("oh=");
  1310  0172  30B2               	movlw	((STR_13-__stringbase))&0ffh
  1311  0173  120A  118A  25F8   	fcall	_serial_display
              120A  118A         
  1312                           	line	106
  1313                           ;aqm.c: 106: } else if(j >= 51 && j <= 60){
  1314  0178  29B4               	goto	l2779
  1315                           	
  1316  0179                     l629:	
  1317                           	
  1318  0179                     l2767:	
  1319  0179  3000               	movlw	high(033h)
  1320  017A  1283               	bcf	status, 5	;RP0=0, select bank0
  1321  017B  1303               	bcf	status, 6	;RP1=0, select bank0
  1322  017C  0231               	subwf	(_j+1),w
  1323  017D  3033               	movlw	low(033h)
  1324  017E  1903               	skipnz
  1325  017F  0230               	subwf	(_j),w
  1326  0180  1C03               	skipc
  1327  0181  2983               	goto	u3031
  1328  0182  2984               	goto	u3030
  1329  0183                     u3031:
  1330  0183  2994               	goto	l2773
  1331  0184                     u3030:
  1332                           	
  1333  0184                     l2769:	
  1334  0184  3000               	movlw	high(03Dh)
  1335  0185  0231               	subwf	(_j+1),w
  1336  0186  303D               	movlw	low(03Dh)
  1337  0187  1903               	skipnz
  1338  0188  0230               	subwf	(_j),w
  1339  0189  1803               	skipnc
  1340  018A  298C               	goto	u3041
  1341  018B  298D               	goto	u3040
  1342  018C                     u3041:
  1343  018C  2994               	goto	l2773
  1344  018D                     u3040:
  1345                           	line	107
  1346                           	
  1347  018D                     l2771:	
  1348                           ;aqm.c: 107: serial_display("meth=");
  1349  018D  30A3               	movlw	((STR_14-__stringbase))&0ffh
  1350  018E  120A  118A  25F8   	fcall	_serial_display
              120A  118A         
  1351                           	line	108
  1352                           ;aqm.c: 108: } else if(j >= 61 && j <= 150){
  1353  0193  29B4               	goto	l2779
  1354                           	
  1355  0194                     l631:	
  1356                           	
  1357  0194                     l2773:	
  1358  0194  3000               	movlw	high(03Dh)
  1359  0195  1283               	bcf	status, 5	;RP0=0, select bank0
  1360  0196  1303               	bcf	status, 6	;RP1=0, select bank0
  1361  0197  0231               	subwf	(_j+1),w
  1362  0198  303D               	movlw	low(03Dh)
  1363  0199  1903               	skipnz
  1364  019A  0230               	subwf	(_j),w
  1365  019B  1C03               	skipc
  1366  019C  299E               	goto	u3051
  1367  019D  299F               	goto	u3050
  1368  019E                     u3051:
  1369  019E  29B4               	goto	l2779
  1370  019F                     u3050:
  1371                           	
  1372  019F                     l2775:	
  1373  019F  3000               	movlw	high(097h)
  1374  01A0  0231               	subwf	(_j+1),w
  1375  01A1  3097               	movlw	low(097h)
  1376  01A2  1903               	skipnz
  1377  01A3  0230               	subwf	(_j),w
  1378  01A4  1803               	skipnc
  1379  01A5  29A7               	goto	u3061
  1380  01A6  29A8               	goto	u3060
  1381  01A7                     u3061:
  1382  01A7  29B4               	goto	l2779
  1383  01A8                     u3060:
  1384                           	line	109
  1385                           	
  1386  01A8                     l2777:	
  1387                           ;aqm.c: 109: serial_display("butane=");
  1388  01A8  3095               	movlw	((STR_15-__stringbase))&0ffh
  1389  01A9  120A  118A  25F8   	fcall	_serial_display
              120A  118A         
  1390  01AE  29B4               	goto	l2779
  1391                           	line	110
  1392                           	
  1393  01AF                     l633:	
  1394  01AF  29B4               	goto	l2779
  1395                           	line	111
  1396                           	
  1397  01B0                     l632:	
  1398  01B0  29B4               	goto	l2779
  1399                           	
  1400  01B1                     l630:	
  1401  01B1  29B4               	goto	l2779
  1402                           	
  1403  01B2                     l628:	
  1404  01B2  29B4               	goto	l2779
  1405                           	
  1406  01B3                     l626:	
  1407  01B3  29B4               	goto	l2779
  1408                           	
  1409  01B4                     l624:	
  1410                           	
  1411  01B4                     l2779:	
  1412                           ;aqm.c: 110: }
  1413                           ;aqm.c: 111: serial_out(d+0x30);
  1414  01B4  1283               	bcf	status, 5	;RP0=0, select bank0
  1415  01B5  1303               	bcf	status, 6	;RP1=0, select bank0
  1416  01B6  082E               	movf	(_d),w
  1417  01B7  3E30               	addlw	030h
  1418  01B8  120A  118A  2696   	fcall	_serial_out
              120A  118A         
  1419                           	line	112
  1420                           	
  1421  01BD                     l2781:	
  1422                           ;aqm.c: 112: serial_out(k+0x30);
  1423  01BD  1283               	bcf	status, 5	;RP0=0, select bank0
  1424  01BE  1303               	bcf	status, 6	;RP1=0, select bank0
  1425  01BF  0832               	movf	(_k),w
  1426  01C0  3E30               	addlw	030h
  1427  01C1  120A  118A  2696   	fcall	_serial_out
              120A  118A         
  1428                           	line	113
  1429                           	
  1430  01C6                     l2783:	
  1431                           ;aqm.c: 113: serial_out(m+0x30);
  1432  01C6  1283               	bcf	status, 5	;RP0=0, select bank0
  1433  01C7  1303               	bcf	status, 6	;RP1=0, select bank0
  1434  01C8  0836               	movf	(_m),w
  1435  01C9  3E30               	addlw	030h
  1436  01CA  120A  118A  2696   	fcall	_serial_out
              120A  118A         
  1437                           	line	114
  1438                           	
  1439  01CF                     l2785:	
  1440                           ;aqm.c: 114: serial_out(n+0x30);
  1441  01CF  1283               	bcf	status, 5	;RP0=0, select bank0
  1442  01D0  1303               	bcf	status, 6	;RP1=0, select bank0
  1443  01D1  0838               	movf	(_n),w
  1444  01D2  3E30               	addlw	030h
  1445  01D3  120A  118A  2696   	fcall	_serial_out
              120A  118A         
  1446                           	line	116
  1447                           	
  1448  01D8                     l2787:	
  1449                           ;aqm.c: 116: serial_out('"');
  1450  01D8  3022               	movlw	(022h)
  1451  01D9  120A  118A  2696   	fcall	_serial_out
              120A  118A         
  1452                           	line	117
  1453                           	
  1454  01DE                     l2789:	
  1455                           ;aqm.c: 117: serial_out(0x0d);
  1456  01DE  300D               	movlw	(0Dh)
  1457  01DF  120A  118A  2696   	fcall	_serial_out
              120A  118A         
  1458                           	line	118
  1459                           	
  1460  01E4                     l2791:	
  1461                           ;aqm.c: 118: _delay((unsigned long)((2000)*(20e6/4000.0)));
  1462                           	opt asmopt_off
  1463  01E4  3033               movlw  51
  1464  01E5  1283               	bcf	status, 5	;RP0=0, select bank0
  1465  01E6  1303               	bcf	status, 6	;RP1=0, select bank0
  1466  01E7  00C5               movwf	((??_gprs+0)+0+2),f
  1467  01E8  3089               movlw	137
  1468  01E9  00C4               movwf	((??_gprs+0)+0+1),f
  1469  01EA  3000               	movlw	256
  1470  01EB  00C3               movwf	((??_gprs+0)+0),f
  1471  01EC                     u3087:
  1472  01EC  0BC3               	decfsz	((??_gprs+0)+0),f
  1473  01ED  29EC               	goto	u3087
  1474  01EE  0BC4               	decfsz	((??_gprs+0)+0+1),f
  1475  01EF  29EC               	goto	u3087
  1476  01F0  0BC5               	decfsz	((??_gprs+0)+0+2),f
  1477  01F1  29EC               	goto	u3087
  1478                           opt asmopt_on
  1479                           
  1480                           	line	119
  1481                           	
  1482  01F2                     l2793:	
  1483                           ;aqm.c: 119: serial_display("AT+HTTPPARA=");
  1484  01F2  3067               	movlw	((STR_16-__stringbase))&0ffh
  1485  01F3  120A  118A  25F8   	fcall	_serial_display
              120A  118A         
  1486                           	line	120
  1487                           	
  1488  01F8                     l2795:	
  1489                           ;aqm.c: 120: serial_out('"');
  1490  01F8  3022               	movlw	(022h)
  1491  01F9  120A  118A  2696   	fcall	_serial_out
              120A  118A         
  1492                           	line	121
  1493                           	
  1494  01FE                     l2797:	
  1495                           ;aqm.c: 121: serial_display("CID");
  1496  01FE  30BA               	movlw	((STR_17-__stringbase))&0ffh
  1497  01FF  120A  118A  25F8   	fcall	_serial_display
              120A  118A         
  1498                           	line	122
  1499                           	
  1500  0204                     l2799:	
  1501                           ;aqm.c: 122: serial_out('"');
  1502  0204  3022               	movlw	(022h)
  1503  0205  120A  118A  2696   	fcall	_serial_out
              120A  118A         
  1504                           	line	123
  1505                           	
  1506  020A                     l2801:	
  1507                           ;aqm.c: 123: serial_out(',');
  1508  020A  302C               	movlw	(02Ch)
  1509  020B  120A  118A  2696   	fcall	_serial_out
              120A  118A         
  1510                           	line	124
  1511                           	
  1512  0210                     l2803:	
  1513                           ;aqm.c: 124: serial_out('1');
  1514  0210  3031               	movlw	(031h)
  1515  0211  120A  118A  2696   	fcall	_serial_out
              120A  118A         
  1516                           	line	125
  1517                           	
  1518  0216                     l2805:	
  1519                           ;aqm.c: 125: serial_out(0x0d);
  1520  0216  300D               	movlw	(0Dh)
  1521  0217  120A  118A  2696   	fcall	_serial_out
              120A  118A         
  1522                           	line	126
  1523                           	
  1524  021C                     l2807:	
  1525                           ;aqm.c: 126: _delay((unsigned long)((2000)*(20e6/4000.0)));
  1526                           	opt asmopt_off
  1527  021C  3033               movlw  51
  1528  021D  1283               	bcf	status, 5	;RP0=0, select bank0
  1529  021E  1303               	bcf	status, 6	;RP1=0, select bank0
  1530  021F  00C5               movwf	((??_gprs+0)+0+2),f
  1531  0220  3089               movlw	137
  1532  0221  00C4               movwf	((??_gprs+0)+0+1),f
  1533  0222  3000               	movlw	256
  1534  0223  00C3               movwf	((??_gprs+0)+0),f
  1535  0224                     u3097:
  1536  0224  0BC3               	decfsz	((??_gprs+0)+0),f
  1537  0225  2A24               	goto	u3097
  1538  0226  0BC4               	decfsz	((??_gprs+0)+0+1),f
  1539  0227  2A24               	goto	u3097
  1540  0228  0BC5               	decfsz	((??_gprs+0)+0+2),f
  1541  0229  2A24               	goto	u3097
  1542                           opt asmopt_on
  1543                           
  1544                           	line	127
  1545                           	
  1546  022A                     l2809:	
  1547                           ;aqm.c: 127: serial_display("AT+HTTPACTION=0");
  1548  022A  304A               	movlw	((STR_18-__stringbase))&0ffh
  1549  022B  120A  118A  25F8   	fcall	_serial_display
              120A  118A         
  1550                           	line	128
  1551                           ;aqm.c: 128: serial_out(0x0d);
  1552  0230  300D               	movlw	(0Dh)
  1553  0231  120A  118A  2696   	fcall	_serial_out
              120A  118A         
  1554                           	line	129
  1555                           	
  1556  0236                     l2811:	
  1557                           ;aqm.c: 129: _delay((unsigned long)((2000)*(20e6/4000.0)));
  1558                           	opt asmopt_off
  1559  0236  3033               movlw  51
  1560  0237  1283               	bcf	status, 5	;RP0=0, select bank0
  1561  0238  1303               	bcf	status, 6	;RP1=0, select bank0
  1562  0239  00C5               movwf	((??_gprs+0)+0+2),f
  1563  023A  3089               movlw	137
  1564  023B  00C4               movwf	((??_gprs+0)+0+1),f
  1565  023C  3000               	movlw	256
  1566  023D  00C3               movwf	((??_gprs+0)+0),f
  1567  023E                     u3107:
  1568  023E  0BC3               	decfsz	((??_gprs+0)+0),f
  1569  023F  2A3E               	goto	u3107
  1570  0240  0BC4               	decfsz	((??_gprs+0)+0+1),f
  1571  0241  2A3E               	goto	u3107
  1572  0242  0BC5               	decfsz	((??_gprs+0)+0+2),f
  1573  0243  2A3E               	goto	u3107
  1574                           opt asmopt_on
  1575                           
  1576                           	line	130
  1577                           	
  1578  0244                     l2813:	
  1579                           ;aqm.c: 130: gprs1();
  1580  0244  120A  118A  224A   	fcall	_gprs1
              120A  118A         
  1581                           	line	131
  1582                           	
  1583  0249                     l634:	
  1584  0249  0008               	return
  1585                           	opt stack 0
  1586                           GLOBAL	__end_of_gprs
  1587  024A                     	__end_of_gprs:
  1588 ;; =============== function _gprs ends ============
  1589                           
  1590                           	signat	_gprs,88
  1591                           	global	_gprs1
  1592                           psect	text518,local,class=CODE,delta=2
  1593                           global __ptext518
  1594  024A                     __ptext518:
  1595                           
  1596 ;; *************** function _gprs1 *****************
  1597 ;; Defined at:
  1598 ;;		line 133 in file "C:\Users\ADMIN\Desktop\aqm\aqm.c"
  1599 ;; Parameters:    Size  Location     Type
  1600 ;;		None
  1601 ;; Auto vars:     Size  Location     Type
  1602 ;;		None
  1603 ;; Return value:  Size  Location     Type
  1604 ;;		None               void
  1605 ;; Registers used:
  1606 ;;		wreg, fsr0l, fsr0h, status,2, status,0, pclath, cstack
  1607 ;; Tracked objects:
  1608 ;;		On entry : 0/0
  1609 ;;		On exit  : 0/0
  1610 ;;		Unchanged: 0/0
  1611 ;; Data sizes:     COMMON   BANK0   BANK1   BANK3   BANK2
  1612 ;;      Params:         0       0       0       0       0
  1613 ;;      Locals:         0       0       0       0       0
  1614 ;;      Temps:          0       3       0       0       0
  1615 ;;      Totals:         0       3       0       0       0
  1616 ;;Total ram usage:        3 bytes
  1617 ;; Hardware stack levels used:    1
  1618 ;; Hardware stack levels required when called:    3
  1619 ;; This function calls:
  1620 ;;		_serial_display
  1621 ;;		_serial_out
  1622 ;;		_command
  1623 ;;		_lcd_display
  1624 ;; This function is called by:
  1625 ;;		_gprs
  1626 ;; This function uses a non-reentrant model
  1627 ;;
  1628                           psect	text518
  1629                           	file	"C:\Users\ADMIN\Desktop\aqm\aqm.c"
  1630                           	line	133
  1631                           	global	__size_of_gprs1
  1632  00E5                     	__size_of_gprs1	equ	__end_of_gprs1-_gprs1
  1633                           	
  1634  024A                     _gprs1:	
  1635                           	opt	stack 3
  1636                           ; Regs used in _gprs1: [wreg-fsr0h+status,2+status,0+pclath+cstack]
  1637                           	line	134
  1638                           	
  1639  024A                     l2679:	
  1640                           ;aqm.c: 134: serial_display("AT+HTTPPARA=");
  1641  024A  3067               	movlw	((STR_19-__stringbase))&0ffh
  1642  024B  120A  118A  25F8   	fcall	_serial_display
              120A  118A         
  1643                           	line	135
  1644                           	
  1645  0250                     l2681:	
  1646                           ;aqm.c: 135: serial_out('"');
  1647  0250  3022               	movlw	(022h)
  1648  0251  120A  118A  2696   	fcall	_serial_out
              120A  118A         
  1649                           	line	136
  1650                           	
  1651  0256                     l2683:	
  1652                           ;aqm.c: 136: serial_display("URL");
  1653  0256  30C2               	movlw	((STR_20-__stringbase))&0ffh
  1654  0257  120A  118A  25F8   	fcall	_serial_display
              120A  118A         
  1655                           	line	137
  1656                           ;aqm.c: 137: serial_out('"');
  1657  025C  3022               	movlw	(022h)
  1658  025D  120A  118A  2696   	fcall	_serial_out
              120A  118A         
  1659                           	line	138
  1660                           ;aqm.c: 138: serial_out(',');
  1661  0262  302C               	movlw	(02Ch)
  1662  0263  120A  118A  2696   	fcall	_serial_out
              120A  118A         
  1663                           	line	139
  1664                           ;aqm.c: 139: serial_out('"');
  1665  0268  3022               	movlw	(022h)
  1666  0269  120A  118A  2696   	fcall	_serial_out
              120A  118A         
  1667                           	line	140
  1668                           	
  1669  026E                     l2685:	
  1670                           ;aqm.c: 140: serial_display("livemonitoring.co.in/aqm1/mout.php");
  1671  026E  3027               	movlw	((STR_21-__stringbase))&0ffh
  1672  026F  120A  118A  25F8   	fcall	_serial_display
              120A  118A         
  1673                           	line	141
  1674                           	
  1675  0274                     l2687:	
  1676                           ;aqm.c: 141: serial_out('"');
  1677  0274  3022               	movlw	(022h)
  1678  0275  120A  118A  2696   	fcall	_serial_out
              120A  118A         
  1679                           	line	142
  1680                           	
  1681  027A                     l2689:	
  1682                           ;aqm.c: 142: serial_out(0x0d);
  1683  027A  300D               	movlw	(0Dh)
  1684  027B  120A  118A  2696   	fcall	_serial_out
              120A  118A         
  1685                           	line	143
  1686                           	
  1687  0280                     l2691:	
  1688                           ;aqm.c: 143: serial_display("AT+HTTPPARA=");
  1689  0280  3067               	movlw	((STR_22-__stringbase))&0ffh
  1690  0281  120A  118A  25F8   	fcall	_serial_display
              120A  118A         
  1691                           	line	144
  1692                           ;aqm.c: 144: serial_out('"');
  1693  0286  3022               	movlw	(022h)
  1694  0287  120A  118A  2696   	fcall	_serial_out
              120A  118A         
  1695                           	line	145
  1696                           	
  1697  028C                     l2693:	
  1698                           ;aqm.c: 145: serial_display("CID");
  1699  028C  30BA               	movlw	((STR_23-__stringbase))&0ffh
  1700  028D  120A  118A  25F8   	fcall	_serial_display
              120A  118A         
  1701                           	line	146
  1702                           	
  1703  0292                     l2695:	
  1704                           ;aqm.c: 146: serial_out('"');
  1705  0292  3022               	movlw	(022h)
  1706  0293  120A  118A  2696   	fcall	_serial_out
              120A  118A         
  1707                           	line	147
  1708                           	
  1709  0298                     l2697:	
  1710                           ;aqm.c: 147: serial_out(',');
  1711  0298  302C               	movlw	(02Ch)
  1712  0299  120A  118A  2696   	fcall	_serial_out
              120A  118A         
  1713                           	line	148
  1714                           	
  1715  029E                     l2699:	
  1716                           ;aqm.c: 148: serial_out('1');
  1717  029E  3031               	movlw	(031h)
  1718  029F  120A  118A  2696   	fcall	_serial_out
              120A  118A         
  1719                           	line	149
  1720                           	
  1721  02A4                     l2701:	
  1722                           ;aqm.c: 149: serial_out(0x0d);_delay((unsigned long)((2000)*(20e6/4000.0)));
  1723  02A4  300D               	movlw	(0Dh)
  1724  02A5  120A  118A  2696   	fcall	_serial_out
              120A  118A         
  1725                           	
  1726  02AA                     l2703:	
  1727                           	opt asmopt_off
  1728  02AA  3033               movlw  51
  1729  02AB  1283               	bcf	status, 5	;RP0=0, select bank0
  1730  02AC  1303               	bcf	status, 6	;RP1=0, select bank0
  1731  02AD  00C2               movwf	((??_gprs1+0)+0+2),f
  1732  02AE  3089               movlw	137
  1733  02AF  00C1               movwf	((??_gprs1+0)+0+1),f
  1734  02B0  3000               	movlw	256
  1735  02B1  00C0               movwf	((??_gprs1+0)+0),f
  1736  02B2                     u3117:
  1737  02B2  0BC0               	decfsz	((??_gprs1+0)+0),f
  1738  02B3  2AB2               	goto	u3117
  1739  02B4  0BC1               	decfsz	((??_gprs1+0)+0+1),f
  1740  02B5  2AB2               	goto	u3117
  1741  02B6  0BC2               	decfsz	((??_gprs1+0)+0+2),f
  1742  02B7  2AB2               	goto	u3117
  1743                           opt asmopt_on
  1744                           
  1745                           	line	150
  1746                           	
  1747  02B8                     l2705:	
  1748                           ;aqm.c: 150: serial_display("AT+HTTPACTION=0");
  1749  02B8  304A               	movlw	((STR_24-__stringbase))&0ffh
  1750  02B9  120A  118A  25F8   	fcall	_serial_display
              120A  118A         
  1751                           	line	151
  1752                           	
  1753  02BE                     l2707:	
  1754                           ;aqm.c: 151: serial_out(0x0d);_delay((unsigned long)((2000)*(20e6/4000.0)));
  1755  02BE  300D               	movlw	(0Dh)
  1756  02BF  120A  118A  2696   	fcall	_serial_out
              120A  118A         
  1757                           	opt asmopt_off
  1758  02C4  3033               movlw  51
  1759  02C5  1283               	bcf	status, 5	;RP0=0, select bank0
  1760  02C6  1303               	bcf	status, 6	;RP1=0, select bank0
  1761  02C7  00C2               movwf	((??_gprs1+0)+0+2),f
  1762  02C8  3089               movlw	137
  1763  02C9  00C1               movwf	((??_gprs1+0)+0+1),f
  1764  02CA  3000               	movlw	256
  1765  02CB  00C0               movwf	((??_gprs1+0)+0),f
  1766  02CC                     u3127:
  1767  02CC  0BC0               	decfsz	((??_gprs1+0)+0),f
  1768  02CD  2ACC               	goto	u3127
  1769  02CE  0BC1               	decfsz	((??_gprs1+0)+0+1),f
  1770  02CF  2ACC               	goto	u3127
  1771  02D0  0BC2               	decfsz	((??_gprs1+0)+0+2),f
  1772  02D1  2ACC               	goto	u3127
  1773                           opt asmopt_on
  1774                           
  1775                           	line	152
  1776                           	
  1777  02D2                     l2709:	
  1778                           ;aqm.c: 152: serial_display("AT+HTTPREAD");
  1779  02D2  3074               	movlw	((STR_25-__stringbase))&0ffh
  1780  02D3  120A  118A  25F8   	fcall	_serial_display
              120A  118A         
  1781                           	line	153
  1782                           	
  1783  02D8                     l2711:	
  1784                           ;aqm.c: 153: serial_out(0x0d);_delay((unsigned long)((3000)*(20e6/4000.0)));
  1785  02D8  300D               	movlw	(0Dh)
  1786  02D9  120A  118A  2696   	fcall	_serial_out
              120A  118A         
  1787                           	
  1788  02DE                     l2713:	
  1789                           	opt asmopt_off
  1790  02DE  304C               movlw  76
  1791  02DF  1283               	bcf	status, 5	;RP0=0, select bank0
  1792  02E0  1303               	bcf	status, 6	;RP1=0, select bank0
  1793  02E1  00C2               movwf	((??_gprs1+0)+0+2),f
  1794  02E2  30CE               movlw	206
  1795  02E3  00C1               movwf	((??_gprs1+0)+0+1),f
  1796  02E4  3081               	movlw	129
  1797  02E5  00C0               movwf	((??_gprs1+0)+0),f
  1798  02E6                     u3137:
  1799  02E6  0BC0               	decfsz	((??_gprs1+0)+0),f
  1800  02E7  2AE6               	goto	u3137
  1801  02E8  0BC1               	decfsz	((??_gprs1+0)+0+1),f
  1802  02E9  2AE6               	goto	u3137
  1803  02EA  0BC2               	decfsz	((??_gprs1+0)+0+2),f
  1804  02EB  2AE6               	goto	u3137
  1805  02EC  0064               	clrwdt
  1806                           opt asmopt_on
  1807                           
  1808                           	line	155
  1809                           	
  1810  02ED                     l2715:	
  1811                           ;aqm.c: 155: if(p>=2)
  1812  02ED  3002               	movlw	(02h)
  1813  02EE  0277               	subwf	(_p),w
  1814  02EF  1C03               	skipc
  1815  02F0  2AF2               	goto	u2921
  1816  02F1  2AF3               	goto	u2920
  1817  02F2                     u2921:
  1818  02F2  2B2E               	goto	l640
  1819  02F3                     u2920:
  1820                           	line	157
  1821                           	
  1822  02F3                     l2717:	
  1823                           ;aqm.c: 156: {
  1824                           ;aqm.c: 157: if(s[1]=='1'){RA5=0;command(0x8D);lcd_display("ON ");}
  1825  02F3  1283               	bcf	status, 5	;RP0=0, select bank0
  1826  02F4  1303               	bcf	status, 6	;RP1=0, select bank0
  1827  02F5  0826               	movf	0+(_s)+01h,w
  1828  02F6  3A31               	xorlw	031h
  1829  02F7  1D03               	skipz
  1830  02F8  2AFA               	goto	u2931
  1831  02F9  2AFB               	goto	u2930
  1832  02FA                     u2931:
  1833  02FA  2B09               	goto	l2725
  1834  02FB                     u2930:
  1835                           	
  1836  02FB                     l2719:	
  1837  02FB  1285               	bcf	(45/8),(45)&7
  1838                           	
  1839  02FC                     l2721:	
  1840  02FC  308D               	movlw	(08Dh)
  1841  02FD  120A  118A  263A   	fcall	_command
              120A  118A         
  1842                           	
  1843  0302                     l2723:	
  1844  0302  30AE               	movlw	((STR_26-__stringbase))&0ffh
  1845  0303  120A  118A  259F   	fcall	_lcd_display
              120A  118A         
  1846  0308  2B09               	goto	l2725
  1847                           	
  1848  0309                     l638:	
  1849                           	line	158
  1850                           	
  1851  0309                     l2725:	
  1852                           ;aqm.c: 158: if(s[1]=='2'){RA5=1;command(0x8D);lcd_display("OFF");}
  1853  0309  1283               	bcf	status, 5	;RP0=0, select bank0
  1854  030A  1303               	bcf	status, 6	;RP1=0, select bank0
  1855  030B  0826               	movf	0+(_s)+01h,w
  1856  030C  3A32               	xorlw	032h
  1857  030D  1D03               	skipz
  1858  030E  2B10               	goto	u2941
  1859  030F  2B11               	goto	u2940
  1860  0310                     u2941:
  1861  0310  2B1F               	goto	l2733
  1862  0311                     u2940:
  1863                           	
  1864  0311                     l2727:	
  1865  0311  1685               	bsf	(45/8),(45)&7
  1866                           	
  1867  0312                     l2729:	
  1868  0312  308D               	movlw	(08Dh)
  1869  0313  120A  118A  263A   	fcall	_command
              120A  118A         
  1870                           	
  1871  0318                     l2731:	
  1872  0318  30BE               	movlw	((STR_27-__stringbase))&0ffh
  1873  0319  120A  118A  259F   	fcall	_lcd_display
              120A  118A         
  1874  031E  2B1F               	goto	l2733
  1875                           	
  1876  031F                     l639:	
  1877                           	line	159
  1878                           	
  1879  031F                     l2733:	
  1880                           ;aqm.c: 159: p=0;s[p]=0;
  1881  031F  1003               	clrc
  1882  0320  3000               	movlw	0
  1883  0321  1803               	btfsc	status,0
  1884  0322  3001               	movlw	1
  1885  0323  00F7               	movwf	(_p)
  1886  0324  1003               	clrc
  1887  0325  0877               	movf	(_p),w
  1888  0326  3E25               	addlw	_s&0ffh
  1889  0327  0084               	movwf	fsr0
  1890  0328  3000               	movlw	0
  1891  0329  1803               	btfsc	status,0
  1892  032A  3001               	movlw	1
  1893  032B  1383               	bcf	status, 7	;select IRP bank0
  1894  032C  0080               	movwf	indf
  1895  032D  2B2E               	goto	l640
  1896                           	line	160
  1897                           	
  1898  032E                     l637:	
  1899                           	line	161
  1900                           	
  1901  032E                     l640:	
  1902  032E  0008               	return
  1903                           	opt stack 0
  1904                           GLOBAL	__end_of_gprs1
  1905  032F                     	__end_of_gprs1:
  1906 ;; =============== function _gprs1 ends ============
  1907                           
  1908                           	signat	_gprs1,88
  1909                           	global	_hexa_val
  1910                           psect	text519,local,class=CODE,delta=2
  1911                           global __ptext519
  1912  032F                     __ptext519:
  1913                           
  1914 ;; *************** function _hexa_val *****************
  1915 ;; Defined at:
  1916 ;;		line 193 in file "C:\Users\ADMIN\Desktop\aqm\aqm.c"
  1917 ;; Parameters:    Size  Location     Type
  1918 ;;  val             2    8[BANK0 ] unsigned int 
  1919 ;; Auto vars:     Size  Location     Type
  1920 ;;		None
  1921 ;; Return value:  Size  Location     Type
  1922 ;;		None               void
  1923 ;; Registers used:
  1924 ;;		wreg, status,2, status,0, pclath, cstack
  1925 ;; Tracked objects:
  1926 ;;		On entry : 0/0
  1927 ;;		On exit  : 0/0
  1928 ;;		Unchanged: 0/0
  1929 ;; Data sizes:     COMMON   BANK0   BANK1   BANK3   BANK2
  1930 ;;      Params:         0       2       0       0       0
  1931 ;;      Locals:         0       0       0       0       0
  1932 ;;      Temps:          0       0       0       0       0
  1933 ;;      Totals:         0       2       0       0       0
  1934 ;;Total ram usage:        2 bytes
  1935 ;; Hardware stack levels used:    1
  1936 ;; Hardware stack levels required when called:    2
  1937 ;; This function calls:
  1938 ;;		___lwdiv
  1939 ;;		___lwmod
  1940 ;;		_lcd_data
  1941 ;; This function is called by:
  1942 ;;		_main
  1943 ;; This function uses a non-reentrant model
  1944 ;;
  1945                           psect	text519
  1946                           	file	"C:\Users\ADMIN\Desktop\aqm\aqm.c"
  1947                           	line	193
  1948                           	global	__size_of_hexa_val
  1949  009D                     	__size_of_hexa_val	equ	__end_of_hexa_val-_hexa_val
  1950                           	
  1951  032F                     _hexa_val:	
  1952                           	opt	stack 5
  1953                           ; Regs used in _hexa_val: [wreg+status,2+status,0+pclath+cstack]
  1954                           	line	194
  1955                           	
  1956  032F                     l2677:	
  1957                           ;aqm.c: 194: d=val/1000;
  1958  032F  30E8               	movlw	low(03E8h)
  1959  0330  1283               	bcf	status, 5	;RP0=0, select bank0
  1960  0331  1303               	bcf	status, 6	;RP1=0, select bank0
  1961  0332  00BA               	movwf	(?___lwdiv)
  1962  0333  3003               	movlw	high(03E8h)
  1963  0334  00BB               	movwf	((?___lwdiv))+1
  1964  0335  0843               	movf	(hexa_val@val+1),w
  1965  0336  01BD               	clrf	1+(?___lwdiv)+02h
  1966  0337  07BD               	addwf	1+(?___lwdiv)+02h
  1967  0338  0842               	movf	(hexa_val@val),w
  1968  0339  01BC               	clrf	0+(?___lwdiv)+02h
  1969  033A  07BC               	addwf	0+(?___lwdiv)+02h
  1970                           
  1971  033B  120A  118A  24C8   	fcall	___lwdiv
              120A  118A         
  1972  0340  1283               	bcf	status, 5	;RP0=0, select bank0
  1973  0341  1303               	bcf	status, 6	;RP1=0, select bank0
  1974  0342  083B               	movf	(1+(?___lwdiv)),w
  1975  0343  01AF               	clrf	(_d+1)
  1976  0344  07AF               	addwf	(_d+1)
  1977  0345  083A               	movf	(0+(?___lwdiv)),w
  1978  0346  01AE               	clrf	(_d)
  1979  0347  07AE               	addwf	(_d)
  1980                           
  1981                           	line	195
  1982                           ;aqm.c: 195: j=val%1000;
  1983  0348  30E8               	movlw	low(03E8h)
  1984  0349  00BA               	movwf	(?___lwmod)
  1985  034A  3003               	movlw	high(03E8h)
  1986  034B  00BB               	movwf	((?___lwmod))+1
  1987  034C  0843               	movf	(hexa_val@val+1),w
  1988  034D  01BD               	clrf	1+(?___lwmod)+02h
  1989  034E  07BD               	addwf	1+(?___lwmod)+02h
  1990  034F  0842               	movf	(hexa_val@val),w
  1991  0350  01BC               	clrf	0+(?___lwmod)+02h
  1992  0351  07BC               	addwf	0+(?___lwmod)+02h
  1993                           
  1994  0352  120A  118A  251A   	fcall	___lwmod
              120A  118A         
  1995  0357  1283               	bcf	status, 5	;RP0=0, select bank0
  1996  0358  1303               	bcf	status, 6	;RP1=0, select bank0
  1997  0359  083B               	movf	(1+(?___lwmod)),w
  1998  035A  01B1               	clrf	(_j+1)
  1999  035B  07B1               	addwf	(_j+1)
  2000  035C  083A               	movf	(0+(?___lwmod)),w
  2001  035D  01B0               	clrf	(_j)
  2002  035E  07B0               	addwf	(_j)
  2003                           
  2004                           	line	196
  2005                           ;aqm.c: 196: k=j/100;
  2006  035F  3064               	movlw	low(064h)
  2007  0360  00BA               	movwf	(?___lwdiv)
  2008  0361  3000               	movlw	high(064h)
  2009  0362  00BB               	movwf	((?___lwdiv))+1
  2010  0363  0831               	movf	(_j+1),w
  2011  0364  01BD               	clrf	1+(?___lwdiv)+02h
  2012  0365  07BD               	addwf	1+(?___lwdiv)+02h
  2013  0366  0830               	movf	(_j),w
  2014  0367  01BC               	clrf	0+(?___lwdiv)+02h
  2015  0368  07BC               	addwf	0+(?___lwdiv)+02h
  2016                           
  2017  0369  120A  118A  24C8   	fcall	___lwdiv
              120A  118A         
  2018  036E  1283               	bcf	status, 5	;RP0=0, select bank0
  2019  036F  1303               	bcf	status, 6	;RP1=0, select bank0
  2020  0370  083B               	movf	(1+(?___lwdiv)),w
  2021  0371  01B3               	clrf	(_k+1)
  2022  0372  07B3               	addwf	(_k+1)
  2023  0373  083A               	movf	(0+(?___lwdiv)),w
  2024  0374  01B2               	clrf	(_k)
  2025  0375  07B2               	addwf	(_k)
  2026                           
  2027                           	line	197
  2028                           ;aqm.c: 197: l=j%100;
  2029  0376  3064               	movlw	low(064h)
  2030  0377  00BA               	movwf	(?___lwmod)
  2031  0378  3000               	movlw	high(064h)
  2032  0379  00BB               	movwf	((?___lwmod))+1
  2033  037A  0831               	movf	(_j+1),w
  2034  037B  01BD               	clrf	1+(?___lwmod)+02h
  2035  037C  07BD               	addwf	1+(?___lwmod)+02h
  2036  037D  0830               	movf	(_j),w
  2037  037E  01BC               	clrf	0+(?___lwmod)+02h
  2038  037F  07BC               	addwf	0+(?___lwmod)+02h
  2039                           
  2040  0380  120A  118A  251A   	fcall	___lwmod
              120A  118A         
  2041  0385  1283               	bcf	status, 5	;RP0=0, select bank0
  2042  0386  1303               	bcf	status, 6	;RP1=0, select bank0
  2043  0387  083B               	movf	(1+(?___lwmod)),w
  2044  0388  01B5               	clrf	(_l+1)
  2045  0389  07B5               	addwf	(_l+1)
  2046  038A  083A               	movf	(0+(?___lwmod)),w
  2047  038B  01B4               	clrf	(_l)
  2048  038C  07B4               	addwf	(_l)
  2049                           
  2050                           	line	198
  2051                           ;aqm.c: 198: m=l/10;
  2052  038D  300A               	movlw	low(0Ah)
  2053  038E  00BA               	movwf	(?___lwdiv)
  2054  038F  3000               	movlw	high(0Ah)
  2055  0390  00BB               	movwf	((?___lwdiv))+1
  2056  0391  0835               	movf	(_l+1),w
  2057  0392  01BD               	clrf	1+(?___lwdiv)+02h
  2058  0393  07BD               	addwf	1+(?___lwdiv)+02h
  2059  0394  0834               	movf	(_l),w
  2060  0395  01BC               	clrf	0+(?___lwdiv)+02h
  2061  0396  07BC               	addwf	0+(?___lwdiv)+02h
  2062                           
  2063  0397  120A  118A  24C8   	fcall	___lwdiv
              120A  118A         
  2064  039C  1283               	bcf	status, 5	;RP0=0, select bank0
  2065  039D  1303               	bcf	status, 6	;RP1=0, select bank0
  2066  039E  083B               	movf	(1+(?___lwdiv)),w
  2067  039F  01B7               	clrf	(_m+1)
  2068  03A0  07B7               	addwf	(_m+1)
  2069  03A1  083A               	movf	(0+(?___lwdiv)),w
  2070  03A2  01B6               	clrf	(_m)
  2071  03A3  07B6               	addwf	(_m)
  2072                           
  2073                           	line	199
  2074                           ;aqm.c: 199: n=l%10;
  2075  03A4  300A               	movlw	low(0Ah)
  2076  03A5  00BA               	movwf	(?___lwmod)
  2077  03A6  3000               	movlw	high(0Ah)
  2078  03A7  00BB               	movwf	((?___lwmod))+1
  2079  03A8  0835               	movf	(_l+1),w
  2080  03A9  01BD               	clrf	1+(?___lwmod)+02h
  2081  03AA  07BD               	addwf	1+(?___lwmod)+02h
  2082  03AB  0834               	movf	(_l),w
  2083  03AC  01BC               	clrf	0+(?___lwmod)+02h
  2084  03AD  07BC               	addwf	0+(?___lwmod)+02h
  2085                           
  2086  03AE  120A  118A  251A   	fcall	___lwmod
              120A  118A         
  2087  03B3  1283               	bcf	status, 5	;RP0=0, select bank0
  2088  03B4  1303               	bcf	status, 6	;RP1=0, select bank0
  2089  03B5  083B               	movf	(1+(?___lwmod)),w
  2090  03B6  01B9               	clrf	(_n+1)
  2091  03B7  07B9               	addwf	(_n+1)
  2092  03B8  083A               	movf	(0+(?___lwmod)),w
  2093  03B9  01B8               	clrf	(_n)
  2094  03BA  07B8               	addwf	(_n)
  2095                           
  2096                           	line	200
  2097                           ;aqm.c: 200: lcd_data(m+0x30);
  2098  03BB  0836               	movf	(_m),w
  2099  03BC  3E30               	addlw	030h
  2100  03BD  120A  118A  261D   	fcall	_lcd_data
              120A  118A         
  2101                           	line	201
  2102                           ;aqm.c: 201: lcd_data(n+0x30);
  2103  03C2  1283               	bcf	status, 5	;RP0=0, select bank0
  2104  03C3  1303               	bcf	status, 6	;RP1=0, select bank0
  2105  03C4  0838               	movf	(_n),w
  2106  03C5  3E30               	addlw	030h
  2107  03C6  120A  118A  261D   	fcall	_lcd_data
              120A  118A         
  2108                           	line	202
  2109                           	
  2110  03CB                     l667:	
  2111  03CB  0008               	return
  2112                           	opt stack 0
  2113                           GLOBAL	__end_of_hexa_val
  2114  03CC                     	__end_of_hexa_val:
  2115 ;; =============== function _hexa_val ends ============
  2116                           
  2117                           	signat	_hexa_val,4216
  2118                           	global	_lcd_display
  2119                           psect	text520,local,class=CODE,delta=2
  2120                           global __ptext520
  2121  059F                     __ptext520:
  2122                           
  2123 ;; *************** function _lcd_display *****************
  2124 ;; Defined at:
  2125 ;;		line 229 in file "C:\Users\ADMIN\Desktop\aqm\aqm.c"
  2126 ;; Parameters:    Size  Location     Type
  2127 ;;  word            1    wreg     PTR const unsigned char 
  2128 ;;		 -> STR_27(4), STR_26(4), STR_1(6), 
  2129 ;; Auto vars:     Size  Location     Type
  2130 ;;  word            1    5[BANK0 ] PTR const unsigned char 
  2131 ;;		 -> STR_27(4), STR_26(4), STR_1(6), 
  2132 ;; Return value:  Size  Location     Type
  2133 ;;		None               void
  2134 ;; Registers used:
  2135 ;;		wreg, fsr0l, fsr0h, status,2, status,0, pclath, cstack
  2136 ;; Tracked objects:
  2137 ;;		On entry : 0/0
  2138 ;;		On exit  : 0/0
  2139 ;;		Unchanged: 0/0
  2140 ;; Data sizes:     COMMON   BANK0   BANK1   BANK3   BANK2
  2141 ;;      Params:         0       0       0       0       0
  2142 ;;      Locals:         0       1       0       0       0
  2143 ;;      Temps:          0       2       0       0       0
  2144 ;;      Totals:         0       3       0       0       0
  2145 ;;Total ram usage:        3 bytes
  2146 ;; Hardware stack levels used:    1
  2147 ;; Hardware stack levels required when called:    2
  2148 ;; This function calls:
  2149 ;;		_lcd_data
  2150 ;; This function is called by:
  2151 ;;		_main
  2152 ;;		_gprs1
  2153 ;; This function uses a non-reentrant model
  2154 ;;
  2155                           psect	text520
  2156                           	file	"C:\Users\ADMIN\Desktop\aqm\aqm.c"
  2157                           	line	229
  2158                           	global	__size_of_lcd_display
  2159  002F                     	__size_of_lcd_display	equ	__end_of_lcd_display-_lcd_display
  2160                           	
  2161  059F                     _lcd_display:	
  2162                           	opt	stack 3
  2163                           ; Regs used in _lcd_display: [wreg-fsr0h+status,2+status,0+pclath+cstack]
  2164                           ;lcd_display@word stored from wreg
  2165  059F  1283               	bcf	status, 5	;RP0=0, select bank0
  2166  05A0  1303               	bcf	status, 6	;RP1=0, select bank0
  2167  05A1  00BF               	movwf	(lcd_display@word)
  2168                           	line	230
  2169                           	
  2170  05A2                     l2667:	
  2171                           ;aqm.c: 230: while(*word){
  2172  05A2  2DBE               	goto	l2675
  2173                           	
  2174  05A3                     l680:	
  2175                           	line	231
  2176                           	
  2177  05A3                     l2669:	
  2178                           ;aqm.c: 231: lcd_data(*word++);
  2179  05A3  083F               	movf	(lcd_display@word),w
  2180  05A4  0084               	movwf	fsr0
  2181  05A5  120A  118A  2015   	fcall	stringdir
              120A  118A         
  2182  05AA  120A  118A  261D   	fcall	_lcd_data
              120A  118A         
  2183                           	
  2184  05AF                     l2671:	
  2185  05AF  3001               	movlw	(01h)
  2186  05B0  1283               	bcf	status, 5	;RP0=0, select bank0
  2187  05B1  1303               	bcf	status, 6	;RP1=0, select bank0
  2188  05B2  00BD               	movwf	(??_lcd_display+0)+0
  2189  05B3  083D               	movf	(??_lcd_display+0)+0,w
  2190  05B4  07BF               	addwf	(lcd_display@word),f
  2191                           	line	232
  2192                           	
  2193  05B5                     l2673:	
  2194                           ;aqm.c: 232: _delay((unsigned long)((1)*(20e6/4000.0)));
  2195                           	opt asmopt_off
  2196  05B5  3007               movlw	7
  2197  05B6  00BE               movwf	((??_lcd_display+0)+0+1),f
  2198  05B7  307D               	movlw	125
  2199  05B8  00BD               movwf	((??_lcd_display+0)+0),f
  2200  05B9                     u3147:
  2201  05B9  0BBD               	decfsz	((??_lcd_display+0)+0),f
  2202  05BA  2DB9               	goto	u3147
  2203  05BB  0BBE               	decfsz	((??_lcd_display+0)+0+1),f
  2204  05BC  2DB9               	goto	u3147
  2205                           opt asmopt_on
  2206                           
  2207  05BD  2DBE               	goto	l2675
  2208                           	line	233
  2209                           	
  2210  05BE                     l679:	
  2211                           	line	230
  2212                           	
  2213  05BE                     l2675:	
  2214  05BE  1283               	bcf	status, 5	;RP0=0, select bank0
  2215  05BF  1303               	bcf	status, 6	;RP1=0, select bank0
  2216  05C0  083F               	movf	(lcd_display@word),w
  2217  05C1  0084               	movwf	fsr0
  2218  05C2  120A  118A  2015   	fcall	stringdir
              120A  118A         
  2219  05C7  3800               	iorlw	0
  2220  05C8  1D03               	skipz
  2221  05C9  2DCB               	goto	u2911
  2222  05CA  2DCC               	goto	u2910
  2223  05CB                     u2911:
  2224  05CB  2DA3               	goto	l2669
  2225  05CC                     u2910:
  2226  05CC  2DCD               	goto	l682
  2227                           	
  2228  05CD                     l681:	
  2229                           	line	234
  2230                           	
  2231  05CD                     l682:	
  2232  05CD  0008               	return
  2233                           	opt stack 0
  2234                           GLOBAL	__end_of_lcd_display
  2235  05CE                     	__end_of_lcd_display:
  2236 ;; =============== function _lcd_display ends ============
  2237                           
  2238                           	signat	_lcd_display,4216
  2239                           	global	_lcd_init
  2240                           psect	text521,local,class=CODE,delta=2
  2241                           global __ptext521
  2242  0657                     __ptext521:
  2243                           
  2244 ;; *************** function _lcd_init *****************
  2245 ;; Defined at:
  2246 ;;		line 204 in file "C:\Users\ADMIN\Desktop\aqm\aqm.c"
  2247 ;; Parameters:    Size  Location     Type
  2248 ;;		None
  2249 ;; Auto vars:     Size  Location     Type
  2250 ;;		None
  2251 ;; Return value:  Size  Location     Type
  2252 ;;		None               void
  2253 ;; Registers used:
  2254 ;;		wreg, status,2, status,0, pclath, cstack
  2255 ;; Tracked objects:
  2256 ;;		On entry : 0/0
  2257 ;;		On exit  : 0/0
  2258 ;;		Unchanged: 0/0
  2259 ;; Data sizes:     COMMON   BANK0   BANK1   BANK3   BANK2
  2260 ;;      Params:         0       0       0       0       0
  2261 ;;      Locals:         0       0       0       0       0
  2262 ;;      Temps:          0       0       0       0       0
  2263 ;;      Totals:         0       0       0       0       0
  2264 ;;Total ram usage:        0 bytes
  2265 ;; Hardware stack levels used:    1
  2266 ;; Hardware stack levels required when called:    2
  2267 ;; This function calls:
  2268 ;;		_command
  2269 ;; This function is called by:
  2270 ;;		_main
  2271 ;; This function uses a non-reentrant model
  2272 ;;
  2273                           psect	text521
  2274                           	file	"C:\Users\ADMIN\Desktop\aqm\aqm.c"
  2275                           	line	204
  2276                           	global	__size_of_lcd_init
  2277  0019                     	__size_of_lcd_init	equ	__end_of_lcd_init-_lcd_init
  2278                           	
  2279  0657                     _lcd_init:	
  2280                           	opt	stack 5
  2281                           ; Regs used in _lcd_init: [wreg+status,2+status,0+pclath+cstack]
  2282                           	line	205
  2283                           	
  2284  0657                     l2665:	
  2285                           ;aqm.c: 205: command(0x01);
  2286  0657  3001               	movlw	(01h)
  2287  0658  120A  118A  263A   	fcall	_command
              120A  118A         
  2288                           	line	206
  2289                           ;aqm.c: 206: command(0x06);
  2290  065D  3006               	movlw	(06h)
  2291  065E  120A  118A  263A   	fcall	_command
              120A  118A         
  2292                           	line	207
  2293                           ;aqm.c: 207: command(0x0c);
  2294  0663  300C               	movlw	(0Ch)
  2295  0664  120A  118A  263A   	fcall	_command
              120A  118A         
  2296                           	line	208
  2297                           ;aqm.c: 208: command(0x38);
  2298  0669  3038               	movlw	(038h)
  2299  066A  120A  118A  263A   	fcall	_command
              120A  118A         
  2300                           	line	209
  2301                           	
  2302  066F                     l670:	
  2303  066F  0008               	return
  2304                           	opt stack 0
  2305                           GLOBAL	__end_of_lcd_init
  2306  0670                     	__end_of_lcd_init:
  2307 ;; =============== function _lcd_init ends ============
  2308                           
  2309                           	signat	_lcd_init,88
  2310                           	global	_gsm_init
  2311                           psect	text522,local,class=CODE,delta=2
  2312                           global __ptext522
  2313  03CC                     __ptext522:
  2314                           
  2315 ;; *************** function _gsm_init *****************
  2316 ;; Defined at:
  2317 ;;		line 57 in file "C:\Users\ADMIN\Desktop\aqm\aqm.c"
  2318 ;; Parameters:    Size  Location     Type
  2319 ;;		None
  2320 ;; Auto vars:     Size  Location     Type
  2321 ;;		None
  2322 ;; Return value:  Size  Location     Type
  2323 ;;		None               void
  2324 ;; Registers used:
  2325 ;;		wreg, fsr0l, fsr0h, status,2, status,0, pclath, cstack
  2326 ;; Tracked objects:
  2327 ;;		On entry : 0/0
  2328 ;;		On exit  : 0/0
  2329 ;;		Unchanged: 0/0
  2330 ;; Data sizes:     COMMON   BANK0   BANK1   BANK3   BANK2
  2331 ;;      Params:         0       0       0       0       0
  2332 ;;      Locals:         0       0       0       0       0
  2333 ;;      Temps:          0       3       0       0       0
  2334 ;;      Totals:         0       3       0       0       0
  2335 ;;Total ram usage:        3 bytes
  2336 ;; Hardware stack levels used:    1
  2337 ;; Hardware stack levels required when called:    3
  2338 ;; This function calls:
  2339 ;;		_serial_display
  2340 ;;		_serial_out
  2341 ;; This function is called by:
  2342 ;;		_main
  2343 ;; This function uses a non-reentrant model
  2344 ;;
  2345                           psect	text522
  2346                           	file	"C:\Users\ADMIN\Desktop\aqm\aqm.c"
  2347                           	line	57
  2348                           	global	__size_of_gsm_init
  2349  0086                     	__size_of_gsm_init	equ	__end_of_gsm_init-_gsm_init
  2350                           	
  2351  03CC                     _gsm_init:	
  2352                           	opt	stack 4
  2353                           ; Regs used in _gsm_init: [wreg-fsr0h+status,2+status,0+pclath+cstack]
  2354                           	line	58
  2355                           	
  2356  03CC                     l2639:	
  2357                           ;aqm.c: 58: serial_display("AT");
  2358  03CC  30C6               	movlw	((STR_2-__stringbase))&0ffh
  2359  03CD  120A  118A  25F8   	fcall	_serial_display
              120A  118A         
  2360                           	line	59
  2361                           	
  2362  03D2                     l2641:	
  2363                           ;aqm.c: 59: serial_out(0x0d);
  2364  03D2  300D               	movlw	(0Dh)
  2365  03D3  120A  118A  2696   	fcall	_serial_out
              120A  118A         
  2366                           	line	60
  2367                           	
  2368  03D8                     l2643:	
  2369                           ;aqm.c: 60: _delay((unsigned long)((500)*(20e6/4000.0)));
  2370                           	opt asmopt_off
  2371  03D8  300D               movlw  13
  2372  03D9  1283               	bcf	status, 5	;RP0=0, select bank0
  2373  03DA  1303               	bcf	status, 6	;RP1=0, select bank0
  2374  03DB  00BF               movwf	((??_gsm_init+0)+0+2),f
  2375  03DC  30A3               movlw	163
  2376  03DD  00BE               movwf	((??_gsm_init+0)+0+1),f
  2377  03DE  30BD               	movlw	189
  2378  03DF  00BD               movwf	((??_gsm_init+0)+0),f
  2379  03E0                     u3157:
  2380  03E0  0BBD               	decfsz	((??_gsm_init+0)+0),f
  2381  03E1  2BE0               	goto	u3157
  2382  03E2  0BBE               	decfsz	((??_gsm_init+0)+0+1),f
  2383  03E3  2BE0               	goto	u3157
  2384  03E4  0BBF               	decfsz	((??_gsm_init+0)+0+2),f
  2385  03E5  2BE0               	goto	u3157
  2386  03E6  0064               	clrwdt
  2387                           opt asmopt_on
  2388                           
  2389                           	line	61
  2390                           	
  2391  03E7                     l2645:	
  2392                           ;aqm.c: 61: serial_display("AT");
  2393  03E7  30C6               	movlw	((STR_3-__stringbase))&0ffh
  2394  03E8  120A  118A  25F8   	fcall	_serial_display
              120A  118A         
  2395                           	line	62
  2396                           	
  2397  03ED                     l2647:	
  2398                           ;aqm.c: 62: serial_out(0x0d);
  2399  03ED  300D               	movlw	(0Dh)
  2400  03EE  120A  118A  2696   	fcall	_serial_out
              120A  118A         
  2401                           	line	63
  2402                           ;aqm.c: 63: _delay((unsigned long)((500)*(20e6/4000.0)));
  2403                           	opt asmopt_off
  2404  03F3  300D               movlw  13
  2405  03F4  1283               	bcf	status, 5	;RP0=0, select bank0
  2406  03F5  1303               	bcf	status, 6	;RP1=0, select bank0
  2407  03F6  00BF               movwf	((??_gsm_init+0)+0+2),f
  2408  03F7  30A3               movlw	163
  2409  03F8  00BE               movwf	((??_gsm_init+0)+0+1),f
  2410  03F9  30BD               	movlw	189
  2411  03FA  00BD               movwf	((??_gsm_init+0)+0),f
  2412  03FB                     u3167:
  2413  03FB  0BBD               	decfsz	((??_gsm_init+0)+0),f
  2414  03FC  2BFB               	goto	u3167
  2415  03FD  0BBE               	decfsz	((??_gsm_init+0)+0+1),f
  2416  03FE  2BFB               	goto	u3167
  2417  03FF  0BBF               	decfsz	((??_gsm_init+0)+0+2),f
  2418  0400  2BFB               	goto	u3167
  2419  0401  0064               	clrwdt
  2420                           opt asmopt_on
  2421                           
  2422                           	line	64
  2423                           	
  2424  0402                     l2649:	
  2425                           ;aqm.c: 64: serial_display("AT+CREG?");
  2426  0402  308C               	movlw	((STR_4-__stringbase))&0ffh
  2427  0403  120A  118A  25F8   	fcall	_serial_display
              120A  118A         
  2428                           	line	65
  2429                           	
  2430  0408                     l2651:	
  2431                           ;aqm.c: 65: serial_out(0x0d);
  2432  0408  300D               	movlw	(0Dh)
  2433  0409  120A  118A  2696   	fcall	_serial_out
              120A  118A         
  2434                           	line	66
  2435                           	
  2436  040E                     l2653:	
  2437                           ;aqm.c: 66: _delay((unsigned long)((500)*(20e6/4000.0)));
  2438                           	opt asmopt_off
  2439  040E  300D               movlw  13
  2440  040F  1283               	bcf	status, 5	;RP0=0, select bank0
  2441  0410  1303               	bcf	status, 6	;RP1=0, select bank0
  2442  0411  00BF               movwf	((??_gsm_init+0)+0+2),f
  2443  0412  30A3               movlw	163
  2444  0413  00BE               movwf	((??_gsm_init+0)+0+1),f
  2445  0414  30BD               	movlw	189
  2446  0415  00BD               movwf	((??_gsm_init+0)+0),f
  2447  0416                     u3177:
  2448  0416  0BBD               	decfsz	((??_gsm_init+0)+0),f
  2449  0417  2C16               	goto	u3177
  2450  0418  0BBE               	decfsz	((??_gsm_init+0)+0+1),f
  2451  0419  2C16               	goto	u3177
  2452  041A  0BBF               	decfsz	((??_gsm_init+0)+0+2),f
  2453  041B  2C16               	goto	u3177
  2454  041C  0064               	clrwdt
  2455                           opt asmopt_on
  2456                           
  2457                           	line	70
  2458                           	
  2459  041D                     l2655:	
  2460                           ;aqm.c: 70: serial_display("AT+SAPBR=1,1");
  2461  041D  305A               	movlw	((STR_5-__stringbase))&0ffh
  2462  041E  120A  118A  25F8   	fcall	_serial_display
              120A  118A         
  2463                           	line	71
  2464                           ;aqm.c: 71: serial_out(0x0d);
  2465  0423  300D               	movlw	(0Dh)
  2466  0424  120A  118A  2696   	fcall	_serial_out
              120A  118A         
  2467                           	line	72
  2468                           	
  2469  0429                     l2657:	
  2470                           ;aqm.c: 72: _delay((unsigned long)((1000)*(20e6/4000.0)));
  2471                           	opt asmopt_off
  2472  0429  301A               movlw  26
  2473  042A  1283               	bcf	status, 5	;RP0=0, select bank0
  2474  042B  1303               	bcf	status, 6	;RP1=0, select bank0
  2475  042C  00BF               movwf	((??_gsm_init+0)+0+2),f
  2476  042D  3045               movlw	69
  2477  042E  00BE               movwf	((??_gsm_init+0)+0+1),f
  2478  042F  307E               	movlw	126
  2479  0430  00BD               movwf	((??_gsm_init+0)+0),f
  2480  0431                     u3187:
  2481  0431  0BBD               	decfsz	((??_gsm_init+0)+0),f
  2482  0432  2C31               	goto	u3187
  2483  0433  0BBE               	decfsz	((??_gsm_init+0)+0+1),f
  2484  0434  2C31               	goto	u3187
  2485  0435  0BBF               	decfsz	((??_gsm_init+0)+0+2),f
  2486  0436  2C31               	goto	u3187
  2487                           opt asmopt_on
  2488                           
  2489                           	line	73
  2490                           	
  2491  0437                     l2659:	
  2492                           ;aqm.c: 73: serial_display("AT+HTTPINIT");
  2493  0437  3080               	movlw	((STR_6-__stringbase))&0ffh
  2494  0438  120A  118A  25F8   	fcall	_serial_display
              120A  118A         
  2495                           	line	74
  2496                           	
  2497  043D                     l2661:	
  2498                           ;aqm.c: 74: serial_out(0x0d);
  2499  043D  300D               	movlw	(0Dh)
  2500  043E  120A  118A  2696   	fcall	_serial_out
              120A  118A         
  2501                           	line	75
  2502                           	
  2503  0443                     l2663:	
  2504                           ;aqm.c: 75: _delay((unsigned long)((1000)*(20e6/4000.0)));
  2505                           	opt asmopt_off
  2506  0443  301A               movlw  26
  2507  0444  1283               	bcf	status, 5	;RP0=0, select bank0
  2508  0445  1303               	bcf	status, 6	;RP1=0, select bank0
  2509  0446  00BF               movwf	((??_gsm_init+0)+0+2),f
  2510  0447  3045               movlw	69
  2511  0448  00BE               movwf	((??_gsm_init+0)+0+1),f
  2512  0449  307E               	movlw	126
  2513  044A  00BD               movwf	((??_gsm_init+0)+0),f
  2514  044B                     u3197:
  2515  044B  0BBD               	decfsz	((??_gsm_init+0)+0),f
  2516  044C  2C4B               	goto	u3197
  2517  044D  0BBE               	decfsz	((??_gsm_init+0)+0+1),f
  2518  044E  2C4B               	goto	u3197
  2519  044F  0BBF               	decfsz	((??_gsm_init+0)+0+2),f
  2520  0450  2C4B               	goto	u3197
  2521                           opt asmopt_on
  2522                           
  2523                           	line	76
  2524                           	
  2525  0451                     l617:	
  2526  0451  0008               	return
  2527                           	opt stack 0
  2528                           GLOBAL	__end_of_gsm_init
  2529  0452                     	__end_of_gsm_init:
  2530 ;; =============== function _gsm_init ends ============
  2531                           
  2532                           	signat	_gsm_init,88
  2533                           	global	_lcd_data
  2534                           psect	text523,local,class=CODE,delta=2
  2535                           global __ptext523
  2536  061D                     __ptext523:
  2537                           
  2538 ;; *************** function _lcd_data *****************
  2539 ;; Defined at:
  2540 ;;		line 220 in file "C:\Users\ADMIN\Desktop\aqm\aqm.c"
  2541 ;; Parameters:    Size  Location     Type
  2542 ;;  D               1    wreg     unsigned char 
  2543 ;; Auto vars:     Size  Location     Type
  2544 ;;  D               1    2[BANK0 ] unsigned char 
  2545 ;; Return value:  Size  Location     Type
  2546 ;;		None               void
  2547 ;; Registers used:
  2548 ;;		wreg
  2549 ;; Tracked objects:
  2550 ;;		On entry : 0/0
  2551 ;;		On exit  : 0/0
  2552 ;;		Unchanged: 0/0
  2553 ;; Data sizes:     COMMON   BANK0   BANK1   BANK3   BANK2
  2554 ;;      Params:         0       0       0       0       0
  2555 ;;      Locals:         0       1       0       0       0
  2556 ;;      Temps:          0       2       0       0       0
  2557 ;;      Totals:         0       3       0       0       0
  2558 ;;Total ram usage:        3 bytes
  2559 ;; Hardware stack levels used:    1
  2560 ;; Hardware stack levels required when called:    1
  2561 ;; This function calls:
  2562 ;;		Nothing
  2563 ;; This function is called by:
  2564 ;;		_hexa_val
  2565 ;;		_lcd_display
  2566 ;; This function uses a non-reentrant model
  2567 ;;
  2568                           psect	text523
  2569                           	file	"C:\Users\ADMIN\Desktop\aqm\aqm.c"
  2570                           	line	220
  2571                           	global	__size_of_lcd_data
  2572  001D                     	__size_of_lcd_data	equ	__end_of_lcd_data-_lcd_data
  2573                           	
  2574  061D                     _lcd_data:	
  2575                           	opt	stack 3
  2576                           ; Regs used in _lcd_data: [wreg]
  2577                           ;lcd_data@D stored from wreg
  2578  061D  1283               	bcf	status, 5	;RP0=0, select bank0
  2579  061E  1303               	bcf	status, 6	;RP1=0, select bank0
  2580  061F  00BC               	movwf	(lcd_data@D)
  2581                           	line	221
  2582                           	
  2583  0620                     l2631:	
  2584                           ;aqm.c: 221: PORTD=D;
  2585  0620  083C               	movf	(lcd_data@D),w
  2586  0621  0088               	movwf	(8)	;volatile
  2587                           	line	222
  2588                           	
  2589  0622                     l2633:	
  2590                           ;aqm.c: 222: RA2=1;
  2591  0622  1505               	bsf	(42/8),(42)&7
  2592                           	line	223
  2593                           	
  2594  0623                     l2635:	
  2595                           ;aqm.c: 223: RE0=1;
  2596  0623  1409               	bsf	(72/8),(72)&7
  2597                           	line	224
  2598                           ;aqm.c: 224: _delay((unsigned long)((10)*(20e6/4000.0)));
  2599                           	opt asmopt_off
  2600  0624  3041               movlw	65
  2601  0625  00BB               movwf	((??_lcd_data+0)+0+1),f
  2602  0626  30EE               	movlw	238
  2603  0627  00BA               movwf	((??_lcd_data+0)+0),f
  2604  0628                     u3207:
  2605  0628  0BBA               	decfsz	((??_lcd_data+0)+0),f
  2606  0629  2E28               	goto	u3207
  2607  062A  0BBB               	decfsz	((??_lcd_data+0)+0+1),f
  2608  062B  2E28               	goto	u3207
  2609  062C  0064               	clrwdt
  2610                           opt asmopt_on
  2611                           
  2612                           	line	225
  2613                           	
  2614  062D                     l2637:	
  2615                           ;aqm.c: 225: RE0=0;
  2616  062D  1283               	bcf	status, 5	;RP0=0, select bank0
  2617  062E  1303               	bcf	status, 6	;RP1=0, select bank0
  2618  062F  1009               	bcf	(72/8),(72)&7
  2619                           	line	226
  2620                           ;aqm.c: 226: _delay((unsigned long)((10)*(20e6/4000.0)));
  2621                           	opt asmopt_off
  2622  0630  3041               movlw	65
  2623  0631  00BB               movwf	((??_lcd_data+0)+0+1),f
  2624  0632  30EE               	movlw	238
  2625  0633  00BA               movwf	((??_lcd_data+0)+0),f
  2626  0634                     u3217:
  2627  0634  0BBA               	decfsz	((??_lcd_data+0)+0),f
  2628  0635  2E34               	goto	u3217
  2629  0636  0BBB               	decfsz	((??_lcd_data+0)+0+1),f
  2630  0637  2E34               	goto	u3217
  2631  0638  0064               	clrwdt
  2632                           opt asmopt_on
  2633                           
  2634                           	line	227
  2635                           	
  2636  0639                     l676:	
  2637  0639  0008               	return
  2638                           	opt stack 0
  2639                           GLOBAL	__end_of_lcd_data
  2640  063A                     	__end_of_lcd_data:
  2641 ;; =============== function _lcd_data ends ============
  2642                           
  2643                           	signat	_lcd_data,4216
  2644                           	global	_serial_display
  2645                           psect	text524,local,class=CODE,delta=2
  2646                           global __ptext524
  2647  05F8                     __ptext524:
  2648                           
  2649 ;; *************** function _serial_display *****************
  2650 ;; Defined at:
  2651 ;;		line 169 in file "C:\Users\ADMIN\Desktop\aqm\aqm.c"
  2652 ;; Parameters:    Size  Location     Type
  2653 ;;  w               1    wreg     PTR const unsigned char 
  2654 ;;		 -> STR_25(12), STR_24(16), STR_23(4), STR_22(13), 
  2655 ;;		 -> STR_21(35), STR_20(4), STR_19(13), STR_18(16), 
  2656 ;;		 -> STR_17(4), STR_16(13), STR_15(8), STR_14(6), 
  2657 ;;		 -> STR_13(4), STR_12(4), STR_11(5), STR_10(4), 
  2658 ;;		 -> STR_9(38), STR_8(4), STR_7(13), STR_6(12), 
  2659 ;;		 -> STR_5(13), STR_4(9), STR_3(3), STR_2(3), 
  2660 ;; Auto vars:     Size  Location     Type
  2661 ;;  w               1    2[BANK0 ] PTR const unsigned char 
  2662 ;;		 -> STR_25(12), STR_24(16), STR_23(4), STR_22(13), 
  2663 ;;		 -> STR_21(35), STR_20(4), STR_19(13), STR_18(16), 
  2664 ;;		 -> STR_17(4), STR_16(13), STR_15(8), STR_14(6), 
  2665 ;;		 -> STR_13(4), STR_12(4), STR_11(5), STR_10(4), 
  2666 ;;		 -> STR_9(38), STR_8(4), STR_7(13), STR_6(12), 
  2667 ;;		 -> STR_5(13), STR_4(9), STR_3(3), STR_2(3), 
  2668 ;; Return value:  Size  Location     Type
  2669 ;;		None               void
  2670 ;; Registers used:
  2671 ;;		wreg, fsr0l, fsr0h, status,2, status,0, pclath, cstack
  2672 ;; Tracked objects:
  2673 ;;		On entry : 0/0
  2674 ;;		On exit  : 0/0
  2675 ;;		Unchanged: 0/0
  2676 ;; Data sizes:     COMMON   BANK0   BANK1   BANK3   BANK2
  2677 ;;      Params:         0       0       0       0       0
  2678 ;;      Locals:         0       1       0       0       0
  2679 ;;      Temps:          0       1       0       0       0
  2680 ;;      Totals:         0       2       0       0       0
  2681 ;;Total ram usage:        2 bytes
  2682 ;; Hardware stack levels used:    1
  2683 ;; Hardware stack levels required when called:    2
  2684 ;; This function calls:
  2685 ;;		_serial_out
  2686 ;; This function is called by:
  2687 ;;		_gsm_init
  2688 ;;		_gprs
  2689 ;;		_gprs1
  2690 ;; This function uses a non-reentrant model
  2691 ;;
  2692                           psect	text524
  2693                           	file	"C:\Users\ADMIN\Desktop\aqm\aqm.c"
  2694                           	line	169
  2695                           	global	__size_of_serial_display
  2696  0025                     	__size_of_serial_display	equ	__end_of_serial_display-_serial_display
  2697                           	
  2698  05F8                     _serial_display:	
  2699                           	opt	stack 3
  2700                           ; Regs used in _serial_display: [wreg-fsr0h+status,2+status,0+pclath+cstack]
  2701                           ;serial_display@w stored from wreg
  2702  05F8  1283               	bcf	status, 5	;RP0=0, select bank0
  2703  05F9  1303               	bcf	status, 6	;RP1=0, select bank0
  2704  05FA  00BC               	movwf	(serial_display@w)
  2705                           	line	170
  2706                           	
  2707  05FB                     l2623:	
  2708                           ;aqm.c: 170: while(*w){
  2709  05FB  2E0F               	goto	l2629
  2710                           	
  2711  05FC                     l650:	
  2712                           	line	171
  2713                           	
  2714  05FC                     l2625:	
  2715                           ;aqm.c: 171: serial_out(*w++);
  2716  05FC  083C               	movf	(serial_display@w),w
  2717  05FD  0084               	movwf	fsr0
  2718  05FE  120A  118A  2015   	fcall	stringdir
              120A  118A         
  2719  0603  120A  118A  2696   	fcall	_serial_out
              120A  118A         
  2720                           	
  2721  0608                     l2627:	
  2722  0608  3001               	movlw	(01h)
  2723  0609  1283               	bcf	status, 5	;RP0=0, select bank0
  2724  060A  1303               	bcf	status, 6	;RP1=0, select bank0
  2725  060B  00BB               	movwf	(??_serial_display+0)+0
  2726  060C  083B               	movf	(??_serial_display+0)+0,w
  2727  060D  07BC               	addwf	(serial_display@w),f
  2728  060E  2E0F               	goto	l2629
  2729                           	line	172
  2730                           	
  2731  060F                     l649:	
  2732                           	line	170
  2733                           	
  2734  060F                     l2629:	
  2735  060F  083C               	movf	(serial_display@w),w
  2736  0610  0084               	movwf	fsr0
  2737  0611  120A  118A  2015   	fcall	stringdir
              120A  118A         
  2738  0616  3800               	iorlw	0
  2739  0617  1D03               	skipz
  2740  0618  2E1A               	goto	u2901
  2741  0619  2E1B               	goto	u2900
  2742  061A                     u2901:
  2743  061A  2DFC               	goto	l2625
  2744  061B                     u2900:
  2745  061B  2E1C               	goto	l652
  2746                           	
  2747  061C                     l651:	
  2748                           	line	173
  2749                           	
  2750  061C                     l652:	
  2751  061C  0008               	return
  2752                           	opt stack 0
  2753                           GLOBAL	__end_of_serial_display
  2754  061D                     	__end_of_serial_display:
  2755 ;; =============== function _serial_display ends ============
  2756                           
  2757                           	signat	_serial_display,4216
  2758                           	global	_command
  2759                           psect	text525,local,class=CODE,delta=2
  2760                           global __ptext525
  2761  063A                     __ptext525:
  2762                           
  2763 ;; *************** function _command *****************
  2764 ;; Defined at:
  2765 ;;		line 211 in file "C:\Users\ADMIN\Desktop\aqm\aqm.c"
  2766 ;; Parameters:    Size  Location     Type
  2767 ;;  com             1    wreg     unsigned char 
  2768 ;; Auto vars:     Size  Location     Type
  2769 ;;  com             1    2[BANK0 ] unsigned char 
  2770 ;; Return value:  Size  Location     Type
  2771 ;;		None               void
  2772 ;; Registers used:
  2773 ;;		wreg
  2774 ;; Tracked objects:
  2775 ;;		On entry : 0/0
  2776 ;;		On exit  : 0/0
  2777 ;;		Unchanged: 0/0
  2778 ;; Data sizes:     COMMON   BANK0   BANK1   BANK3   BANK2
  2779 ;;      Params:         0       0       0       0       0
  2780 ;;      Locals:         0       1       0       0       0
  2781 ;;      Temps:          0       2       0       0       0
  2782 ;;      Totals:         0       3       0       0       0
  2783 ;;Total ram usage:        3 bytes
  2784 ;; Hardware stack levels used:    1
  2785 ;; Hardware stack levels required when called:    1
  2786 ;; This function calls:
  2787 ;;		Nothing
  2788 ;; This function is called by:
  2789 ;;		_main
  2790 ;;		_gprs1
  2791 ;;		_lcd_init
  2792 ;; This function uses a non-reentrant model
  2793 ;;
  2794                           psect	text525
  2795                           	file	"C:\Users\ADMIN\Desktop\aqm\aqm.c"
  2796                           	line	211
  2797                           	global	__size_of_command
  2798  001D                     	__size_of_command	equ	__end_of_command-_command
  2799                           	
  2800  063A                     _command:	
  2801                           	opt	stack 4
  2802                           ; Regs used in _command: [wreg]
  2803                           ;command@com stored from wreg
  2804  063A  1283               	bcf	status, 5	;RP0=0, select bank0
  2805  063B  1303               	bcf	status, 6	;RP1=0, select bank0
  2806  063C  00BC               	movwf	(command@com)
  2807                           	line	212
  2808                           	
  2809  063D                     l2615:	
  2810                           ;aqm.c: 212: PORTD=com;
  2811  063D  083C               	movf	(command@com),w
  2812  063E  0088               	movwf	(8)	;volatile
  2813                           	line	213
  2814                           	
  2815  063F                     l2617:	
  2816                           ;aqm.c: 213: RA2=0;
  2817  063F  1105               	bcf	(42/8),(42)&7
  2818                           	line	214
  2819                           	
  2820  0640                     l2619:	
  2821                           ;aqm.c: 214: RE0=1;
  2822  0640  1409               	bsf	(72/8),(72)&7
  2823                           	line	215
  2824                           ;aqm.c: 215: _delay((unsigned long)((10)*(20e6/4000.0)));
  2825                           	opt asmopt_off
  2826  0641  3041               movlw	65
  2827  0642  00BB               movwf	((??_command+0)+0+1),f
  2828  0643  30EE               	movlw	238
  2829  0644  00BA               movwf	((??_command+0)+0),f
  2830  0645                     u3227:
  2831  0645  0BBA               	decfsz	((??_command+0)+0),f
  2832  0646  2E45               	goto	u3227
  2833  0647  0BBB               	decfsz	((??_command+0)+0+1),f
  2834  0648  2E45               	goto	u3227
  2835  0649  0064               	clrwdt
  2836                           opt asmopt_on
  2837                           
  2838                           	line	216
  2839                           	
  2840  064A                     l2621:	
  2841                           ;aqm.c: 216: RE0=0;
  2842  064A  1283               	bcf	status, 5	;RP0=0, select bank0
  2843  064B  1303               	bcf	status, 6	;RP1=0, select bank0
  2844  064C  1009               	bcf	(72/8),(72)&7
  2845                           	line	217
  2846                           ;aqm.c: 217: _delay((unsigned long)((10)*(20e6/4000.0)));
  2847                           	opt asmopt_off
  2848  064D  3041               movlw	65
  2849  064E  00BB               movwf	((??_command+0)+0+1),f
  2850  064F  30EE               	movlw	238
  2851  0650  00BA               movwf	((??_command+0)+0),f
  2852  0651                     u3237:
  2853  0651  0BBA               	decfsz	((??_command+0)+0),f
  2854  0652  2E51               	goto	u3237
  2855  0653  0BBB               	decfsz	((??_command+0)+0+1),f
  2856  0654  2E51               	goto	u3237
  2857  0655  0064               	clrwdt
  2858                           opt asmopt_on
  2859                           
  2860                           	line	218
  2861                           	
  2862  0656                     l673:	
  2863  0656  0008               	return
  2864                           	opt stack 0
  2865                           GLOBAL	__end_of_command
  2866  0657                     	__end_of_command:
  2867 ;; =============== function _command ends ============
  2868                           
  2869                           	signat	_command,4216
  2870                           	global	___lwmod
  2871                           psect	text526,local,class=CODE,delta=2
  2872                           global __ptext526
  2873  051A                     __ptext526:
  2874                           
  2875 ;; *************** function ___lwmod *****************
  2876 ;; Defined at:
  2877 ;;		line 5 in file "C:\Program Files (x86)\HI-TECH Software\PICC\9.80\sources\lwmod.c"
  2878 ;; Parameters:    Size  Location     Type
  2879 ;;  divisor         2    0[BANK0 ] unsigned int 
  2880 ;;  dividend        2    2[BANK0 ] unsigned int 
  2881 ;; Auto vars:     Size  Location     Type
  2882 ;;  counter         1    5[BANK0 ] unsigned char 
  2883 ;; Return value:  Size  Location     Type
  2884 ;;                  2    0[BANK0 ] unsigned int 
  2885 ;; Registers used:
  2886 ;;		wreg, status,2, status,0
  2887 ;; Tracked objects:
  2888 ;;		On entry : 0/0
  2889 ;;		On exit  : 0/0
  2890 ;;		Unchanged: 0/0
  2891 ;; Data sizes:     COMMON   BANK0   BANK1   BANK3   BANK2
  2892 ;;      Params:         0       4       0       0       0
  2893 ;;      Locals:         0       1       0       0       0
  2894 ;;      Temps:          0       1       0       0       0
  2895 ;;      Totals:         0       6       0       0       0
  2896 ;;Total ram usage:        6 bytes
  2897 ;; Hardware stack levels used:    1
  2898 ;; Hardware stack levels required when called:    1
  2899 ;; This function calls:
  2900 ;;		Nothing
  2901 ;; This function is called by:
  2902 ;;		_hexa_val
  2903 ;; This function uses a non-reentrant model
  2904 ;;
  2905                           psect	text526
  2906                           	file	"C:\Program Files (x86)\HI-TECH Software\PICC\9.80\sources\lwmod.c"
  2907                           	line	5
  2908                           	global	__size_of___lwmod
  2909  0046                     	__size_of___lwmod	equ	__end_of___lwmod-___lwmod
  2910                           	
  2911  051A                     ___lwmod:	
  2912                           	opt	stack 5
  2913                           ; Regs used in ___lwmod: [wreg+status,2+status,0]
  2914                           	line	8
  2915                           	
  2916  051A                     l2593:	
  2917  051A  1283               	bcf	status, 5	;RP0=0, select bank0
  2918  051B  1303               	bcf	status, 6	;RP1=0, select bank0
  2919  051C  083B               	movf	(___lwmod@divisor+1),w
  2920  051D  043A               	iorwf	(___lwmod@divisor),w
  2921  051E  1903               	skipnz
  2922  051F  2D21               	goto	u2841
  2923  0520  2D22               	goto	u2840
  2924  0521                     u2841:
  2925  0521  2D58               	goto	l2611
  2926  0522                     u2840:
  2927                           	line	9
  2928                           	
  2929  0522                     l2595:	
  2930  0522  01BF               	clrf	(___lwmod@counter)
  2931  0523  1403               	bsf	status,0
  2932  0524  0DBF               	rlf	(___lwmod@counter),f
  2933                           	line	10
  2934  0525  2D32               	goto	l2601
  2935                           	
  2936  0526                     l709:	
  2937                           	line	11
  2938                           	
  2939  0526                     l2597:	
  2940  0526  3001               	movlw	01h
  2941                           	
  2942  0527                     u2855:
  2943  0527  1003               	clrc
  2944  0528  0DBA               	rlf	(___lwmod@divisor),f
  2945  0529  0DBB               	rlf	(___lwmod@divisor+1),f
  2946  052A  3EFF               	addlw	-1
  2947  052B  1D03               	skipz
  2948  052C  2D27               	goto	u2855
  2949                           	line	12
  2950                           	
  2951  052D                     l2599:	
  2952  052D  3001               	movlw	(01h)
  2953  052E  00BE               	movwf	(??___lwmod+0)+0
  2954  052F  083E               	movf	(??___lwmod+0)+0,w
  2955  0530  07BF               	addwf	(___lwmod@counter),f
  2956  0531  2D32               	goto	l2601
  2957                           	line	13
  2958                           	
  2959  0532                     l708:	
  2960                           	line	10
  2961                           	
  2962  0532                     l2601:	
  2963  0532  1FBB               	btfss	(___lwmod@divisor+1),(15)&7
  2964  0533  2D35               	goto	u2861
  2965  0534  2D36               	goto	u2860
  2966  0535                     u2861:
  2967  0535  2D26               	goto	l2597
  2968  0536                     u2860:
  2969  0536  2D38               	goto	l2603
  2970                           	
  2971  0537                     l710:	
  2972  0537  2D38               	goto	l2603
  2973                           	line	14
  2974                           	
  2975  0538                     l711:	
  2976                           	line	15
  2977                           	
  2978  0538                     l2603:	
  2979  0538  083B               	movf	(___lwmod@divisor+1),w
  2980  0539  023D               	subwf	(___lwmod@dividend+1),w
  2981  053A  1D03               	skipz
  2982  053B  2D3E               	goto	u2875
  2983  053C  083A               	movf	(___lwmod@divisor),w
  2984  053D  023C               	subwf	(___lwmod@dividend),w
  2985  053E                     u2875:
  2986  053E  1C03               	skipc
  2987  053F  2D41               	goto	u2871
  2988  0540  2D42               	goto	u2870
  2989  0541                     u2871:
  2990  0541  2D49               	goto	l2607
  2991  0542                     u2870:
  2992                           	line	16
  2993                           	
  2994  0542                     l2605:	
  2995  0542  083A               	movf	(___lwmod@divisor),w
  2996  0543  02BC               	subwf	(___lwmod@dividend),f
  2997  0544  083B               	movf	(___lwmod@divisor+1),w
  2998  0545  1C03               	skipc
  2999  0546  03BD               	decf	(___lwmod@dividend+1),f
  3000  0547  02BD               	subwf	(___lwmod@dividend+1),f
  3001  0548  2D49               	goto	l2607
  3002                           	
  3003  0549                     l712:	
  3004                           	line	17
  3005                           	
  3006  0549                     l2607:	
  3007  0549  3001               	movlw	01h
  3008                           	
  3009  054A                     u2885:
  3010  054A  1003               	clrc
  3011  054B  0CBB               	rrf	(___lwmod@divisor+1),f
  3012  054C  0CBA               	rrf	(___lwmod@divisor),f
  3013  054D  3EFF               	addlw	-1
  3014  054E  1D03               	skipz
  3015  054F  2D4A               	goto	u2885
  3016                           	line	18
  3017                           	
  3018  0550                     l2609:	
  3019  0550  3001               	movlw	low(01h)
  3020  0551  02BF               	subwf	(___lwmod@counter),f
  3021  0552  1D03               	btfss	status,2
  3022  0553  2D55               	goto	u2891
  3023  0554  2D56               	goto	u2890
  3024  0555                     u2891:
  3025  0555  2D38               	goto	l2603
  3026  0556                     u2890:
  3027  0556  2D58               	goto	l2611
  3028                           	
  3029  0557                     l713:	
  3030  0557  2D58               	goto	l2611
  3031                           	line	19
  3032                           	
  3033  0558                     l707:	
  3034                           	line	20
  3035                           	
  3036  0558                     l2611:	
  3037  0558  083D               	movf	(___lwmod@dividend+1),w
  3038  0559  01BB               	clrf	(?___lwmod+1)
  3039  055A  07BB               	addwf	(?___lwmod+1)
  3040  055B  083C               	movf	(___lwmod@dividend),w
  3041  055C  01BA               	clrf	(?___lwmod)
  3042  055D  07BA               	addwf	(?___lwmod)
  3043                           
  3044  055E  2D5F               	goto	l714
  3045                           	
  3046  055F                     l2613:	
  3047                           	line	21
  3048                           	
  3049  055F                     l714:	
  3050  055F  0008               	return
  3051                           	opt stack 0
  3052                           GLOBAL	__end_of___lwmod
  3053  0560                     	__end_of___lwmod:
  3054 ;; =============== function ___lwmod ends ============
  3055                           
  3056                           	signat	___lwmod,8314
  3057                           	global	___lwdiv
  3058                           psect	text527,local,class=CODE,delta=2
  3059                           global __ptext527
  3060  04C8                     __ptext527:
  3061                           
  3062 ;; *************** function ___lwdiv *****************
  3063 ;; Defined at:
  3064 ;;		line 5 in file "C:\Program Files (x86)\HI-TECH Software\PICC\9.80\sources\lwdiv.c"
  3065 ;; Parameters:    Size  Location     Type
  3066 ;;  divisor         2    0[BANK0 ] unsigned int 
  3067 ;;  dividend        2    2[BANK0 ] unsigned int 
  3068 ;; Auto vars:     Size  Location     Type
  3069 ;;  quotient        2    6[BANK0 ] unsigned int 
  3070 ;;  counter         1    5[BANK0 ] unsigned char 
  3071 ;; Return value:  Size  Location     Type
  3072 ;;                  2    0[BANK0 ] unsigned int 
  3073 ;; Registers used:
  3074 ;;		wreg, status,2, status,0
  3075 ;; Tracked objects:
  3076 ;;		On entry : 0/0
  3077 ;;		On exit  : 0/0
  3078 ;;		Unchanged: 0/0
  3079 ;; Data sizes:     COMMON   BANK0   BANK1   BANK3   BANK2
  3080 ;;      Params:         0       4       0       0       0
  3081 ;;      Locals:         0       3       0       0       0
  3082 ;;      Temps:          0       1       0       0       0
  3083 ;;      Totals:         0       8       0       0       0
  3084 ;;Total ram usage:        8 bytes
  3085 ;; Hardware stack levels used:    1
  3086 ;; Hardware stack levels required when called:    1
  3087 ;; This function calls:
  3088 ;;		Nothing
  3089 ;; This function is called by:
  3090 ;;		_hexa_val
  3091 ;; This function uses a non-reentrant model
  3092 ;;
  3093                           psect	text527
  3094                           	file	"C:\Program Files (x86)\HI-TECH Software\PICC\9.80\sources\lwdiv.c"
  3095                           	line	5
  3096                           	global	__size_of___lwdiv
  3097  0052                     	__size_of___lwdiv	equ	__end_of___lwdiv-___lwdiv
  3098                           	
  3099  04C8                     ___lwdiv:	
  3100                           	opt	stack 5
  3101                           ; Regs used in ___lwdiv: [wreg+status,2+status,0]
  3102                           	line	9
  3103                           	
  3104  04C8                     l2569:	
  3105  04C8  3000               	movlw	low(0)
  3106  04C9  1283               	bcf	status, 5	;RP0=0, select bank0
  3107  04CA  1303               	bcf	status, 6	;RP1=0, select bank0
  3108  04CB  00C0               	movwf	(___lwdiv@quotient)
  3109  04CC  3000               	movlw	high(0)
  3110  04CD  00C1               	movwf	((___lwdiv@quotient))+1
  3111                           	line	10
  3112  04CE  083B               	movf	(___lwdiv@divisor+1),w
  3113  04CF  043A               	iorwf	(___lwdiv@divisor),w
  3114  04D0  1903               	skipnz
  3115  04D1  2CD3               	goto	u2771
  3116  04D2  2CD4               	goto	u2770
  3117  04D3                     u2771:
  3118  04D3  2D12               	goto	l2589
  3119  04D4                     u2770:
  3120                           	line	11
  3121                           	
  3122  04D4                     l2571:	
  3123  04D4  01BF               	clrf	(___lwdiv@counter)
  3124  04D5  1403               	bsf	status,0
  3125  04D6  0DBF               	rlf	(___lwdiv@counter),f
  3126                           	line	12
  3127  04D7  2CE4               	goto	l2577
  3128                           	
  3129  04D8                     l699:	
  3130                           	line	13
  3131                           	
  3132  04D8                     l2573:	
  3133  04D8  3001               	movlw	01h
  3134                           	
  3135  04D9                     u2785:
  3136  04D9  1003               	clrc
  3137  04DA  0DBA               	rlf	(___lwdiv@divisor),f
  3138  04DB  0DBB               	rlf	(___lwdiv@divisor+1),f
  3139  04DC  3EFF               	addlw	-1
  3140  04DD  1D03               	skipz
  3141  04DE  2CD9               	goto	u2785
  3142                           	line	14
  3143                           	
  3144  04DF                     l2575:	
  3145  04DF  3001               	movlw	(01h)
  3146  04E0  00BE               	movwf	(??___lwdiv+0)+0
  3147  04E1  083E               	movf	(??___lwdiv+0)+0,w
  3148  04E2  07BF               	addwf	(___lwdiv@counter),f
  3149  04E3  2CE4               	goto	l2577
  3150                           	line	15
  3151                           	
  3152  04E4                     l698:	
  3153                           	line	12
  3154                           	
  3155  04E4                     l2577:	
  3156  04E4  1FBB               	btfss	(___lwdiv@divisor+1),(15)&7
  3157  04E5  2CE7               	goto	u2791
  3158  04E6  2CE8               	goto	u2790
  3159  04E7                     u2791:
  3160  04E7  2CD8               	goto	l2573
  3161  04E8                     u2790:
  3162  04E8  2CEA               	goto	l2579
  3163                           	
  3164  04E9                     l700:	
  3165  04E9  2CEA               	goto	l2579
  3166                           	line	16
  3167                           	
  3168  04EA                     l701:	
  3169                           	line	17
  3170                           	
  3171  04EA                     l2579:	
  3172  04EA  3001               	movlw	01h
  3173                           	
  3174  04EB                     u2805:
  3175  04EB  1003               	clrc
  3176  04EC  0DC0               	rlf	(___lwdiv@quotient),f
  3177  04ED  0DC1               	rlf	(___lwdiv@quotient+1),f
  3178  04EE  3EFF               	addlw	-1
  3179  04EF  1D03               	skipz
  3180  04F0  2CEB               	goto	u2805
  3181                           	line	18
  3182  04F1  083B               	movf	(___lwdiv@divisor+1),w
  3183  04F2  023D               	subwf	(___lwdiv@dividend+1),w
  3184  04F3  1D03               	skipz
  3185  04F4  2CF7               	goto	u2815
  3186  04F5  083A               	movf	(___lwdiv@divisor),w
  3187  04F6  023C               	subwf	(___lwdiv@dividend),w
  3188  04F7                     u2815:
  3189  04F7  1C03               	skipc
  3190  04F8  2CFA               	goto	u2811
  3191  04F9  2CFB               	goto	u2810
  3192  04FA                     u2811:
  3193  04FA  2D03               	goto	l2585
  3194  04FB                     u2810:
  3195                           	line	19
  3196                           	
  3197  04FB                     l2581:	
  3198  04FB  083A               	movf	(___lwdiv@divisor),w
  3199  04FC  02BC               	subwf	(___lwdiv@dividend),f
  3200  04FD  083B               	movf	(___lwdiv@divisor+1),w
  3201  04FE  1C03               	skipc
  3202  04FF  03BD               	decf	(___lwdiv@dividend+1),f
  3203  0500  02BD               	subwf	(___lwdiv@dividend+1),f
  3204                           	line	20
  3205                           	
  3206  0501                     l2583:	
  3207  0501  1440               	bsf	(___lwdiv@quotient)+(0/8),(0)&7
  3208  0502  2D03               	goto	l2585
  3209                           	line	21
  3210                           	
  3211  0503                     l702:	
  3212                           	line	22
  3213                           	
  3214  0503                     l2585:	
  3215  0503  3001               	movlw	01h
  3216                           	
  3217  0504                     u2825:
  3218  0504  1003               	clrc
  3219  0505  0CBB               	rrf	(___lwdiv@divisor+1),f
  3220  0506  0CBA               	rrf	(___lwdiv@divisor),f
  3221  0507  3EFF               	addlw	-1
  3222  0508  1D03               	skipz
  3223  0509  2D04               	goto	u2825
  3224                           	line	23
  3225                           	
  3226  050A                     l2587:	
  3227  050A  3001               	movlw	low(01h)
  3228  050B  02BF               	subwf	(___lwdiv@counter),f
  3229  050C  1D03               	btfss	status,2
  3230  050D  2D0F               	goto	u2831
  3231  050E  2D10               	goto	u2830
  3232  050F                     u2831:
  3233  050F  2CEA               	goto	l2579
  3234  0510                     u2830:
  3235  0510  2D12               	goto	l2589
  3236                           	
  3237  0511                     l703:	
  3238  0511  2D12               	goto	l2589
  3239                           	line	24
  3240                           	
  3241  0512                     l697:	
  3242                           	line	25
  3243                           	
  3244  0512                     l2589:	
  3245  0512  0841               	movf	(___lwdiv@quotient+1),w
  3246  0513  01BB               	clrf	(?___lwdiv+1)
  3247  0514  07BB               	addwf	(?___lwdiv+1)
  3248  0515  0840               	movf	(___lwdiv@quotient),w
  3249  0516  01BA               	clrf	(?___lwdiv)
  3250  0517  07BA               	addwf	(?___lwdiv)
  3251                           
  3252  0518  2D19               	goto	l704
  3253                           	
  3254  0519                     l2591:	
  3255                           	line	26
  3256                           	
  3257  0519                     l704:	
  3258  0519  0008               	return
  3259                           	opt stack 0
  3260                           GLOBAL	__end_of___lwdiv
  3261  051A                     	__end_of___lwdiv:
  3262 ;; =============== function ___lwdiv ends ============
  3263                           
  3264                           	signat	___lwdiv,8314
  3265                           	global	_serial_out
  3266                           psect	text528,local,class=CODE,delta=2
  3267                           global __ptext528
  3268  0696                     __ptext528:
  3269                           
  3270 ;; *************** function _serial_out *****************
  3271 ;; Defined at:
  3272 ;;		line 163 in file "C:\Users\ADMIN\Desktop\aqm\aqm.c"
  3273 ;; Parameters:    Size  Location     Type
  3274 ;;  z               1    wreg     unsigned char 
  3275 ;; Auto vars:     Size  Location     Type
  3276 ;;  z               1    0[BANK0 ] unsigned char 
  3277 ;; Return value:  Size  Location     Type
  3278 ;;		None               void
  3279 ;; Registers used:
  3280 ;;		wreg
  3281 ;; Tracked objects:
  3282 ;;		On entry : 0/0
  3283 ;;		On exit  : 0/0
  3284 ;;		Unchanged: 0/0
  3285 ;; Data sizes:     COMMON   BANK0   BANK1   BANK3   BANK2
  3286 ;;      Params:         0       0       0       0       0
  3287 ;;      Locals:         0       1       0       0       0
  3288 ;;      Temps:          0       0       0       0       0
  3289 ;;      Totals:         0       1       0       0       0
  3290 ;;Total ram usage:        1 bytes
  3291 ;; Hardware stack levels used:    1
  3292 ;; Hardware stack levels required when called:    1
  3293 ;; This function calls:
  3294 ;;		Nothing
  3295 ;; This function is called by:
  3296 ;;		_gsm_init
  3297 ;;		_gprs
  3298 ;;		_gprs1
  3299 ;;		_serial_display
  3300 ;; This function uses a non-reentrant model
  3301 ;;
  3302                           psect	text528
  3303                           	file	"C:\Users\ADMIN\Desktop\aqm\aqm.c"
  3304                           	line	163
  3305                           	global	__size_of_serial_out
  3306  000C                     	__size_of_serial_out	equ	__end_of_serial_out-_serial_out
  3307                           	
  3308  0696                     _serial_out:	
  3309                           	opt	stack 4
  3310                           ; Regs used in _serial_out: [wreg]
  3311                           ;serial_out@z stored from wreg
  3312  0696  1283               	bcf	status, 5	;RP0=0, select bank0
  3313  0697  1303               	bcf	status, 6	;RP1=0, select bank0
  3314  0698  00BA               	movwf	(serial_out@z)
  3315                           	line	164
  3316                           	
  3317  0699                     l2567:	
  3318                           ;aqm.c: 164: TXREG=z;
  3319  0699  083A               	movf	(serial_out@z),w
  3320  069A  0099               	movwf	(25)	;volatile
  3321                           	line	165
  3322                           ;aqm.c: 165: while(!TXIF);
  3323  069B  2E9C               	goto	l643
  3324                           	
  3325  069C                     l644:	
  3326                           	
  3327  069C                     l643:	
  3328  069C  1E0C               	btfss	(100/8),(100)&7
  3329  069D  2E9F               	goto	u2761
  3330  069E  2EA0               	goto	u2760
  3331  069F                     u2761:
  3332  069F  2E9C               	goto	l643
  3333  06A0                     u2760:
  3334                           	
  3335  06A0                     l645:	
  3336                           	line	166
  3337                           ;aqm.c: 166: TXIF=0;
  3338  06A0  120C               	bcf	(100/8),(100)&7
  3339                           	line	167
  3340                           	
  3341  06A1                     l646:	
  3342  06A1  0008               	return
  3343                           	opt stack 0
  3344                           GLOBAL	__end_of_serial_out
  3345  06A2                     	__end_of_serial_out:
  3346 ;; =============== function _serial_out ends ============
  3347                           
  3348                           	signat	_serial_out,4216
  3349                           	global	_adc_conversion
  3350                           psect	text529,local,class=CODE,delta=2
  3351                           global __ptext529
  3352  0560                     __ptext529:
  3353                           
  3354 ;; *************** function _adc_conversion *****************
  3355 ;; Defined at:
  3356 ;;		line 184 in file "C:\Users\ADMIN\Desktop\aqm\aqm.c"
  3357 ;; Parameters:    Size  Location     Type
  3358 ;;		None
  3359 ;; Auto vars:     Size  Location     Type
  3360 ;;		None
  3361 ;; Return value:  Size  Location     Type
  3362 ;;		None               void
  3363 ;; Registers used:
  3364 ;;		wreg, status,2, status,0, btemp+1
  3365 ;; Tracked objects:
  3366 ;;		On entry : 0/0
  3367 ;;		On exit  : 0/0
  3368 ;;		Unchanged: 0/0
  3369 ;; Data sizes:     COMMON   BANK0   BANK1   BANK3   BANK2
  3370 ;;      Params:         0       0       0       0       0
  3371 ;;      Locals:         0       0       0       0       0
  3372 ;;      Temps:          0       2       0       0       0
  3373 ;;      Totals:         0       2       0       0       0
  3374 ;;Total ram usage:        2 bytes
  3375 ;; Hardware stack levels used:    1
  3376 ;; Hardware stack levels required when called:    1
  3377 ;; This function calls:
  3378 ;;		Nothing
  3379 ;; This function is called by:
  3380 ;;		_main
  3381 ;; This function uses a non-reentrant model
  3382 ;;
  3383                           psect	text529
  3384                           	file	"C:\Users\ADMIN\Desktop\aqm\aqm.c"
  3385                           	line	184
  3386                           	global	__size_of_adc_conversion
  3387  003F                     	__size_of_adc_conversion	equ	__end_of_adc_conversion-_adc_conversion
  3388                           	
  3389  0560                     _adc_conversion:	
  3390                           	opt	stack 6
  3391                           ; Regs used in _adc_conversion: [wreg+status,2+status,0+btemp+1]
  3392                           	line	185
  3393                           	
  3394  0560                     l2559:	
  3395                           ;aqm.c: 185: ADCON0=0XC5;
  3396  0560  30C5               	movlw	(0C5h)
  3397  0561  1283               	bcf	status, 5	;RP0=0, select bank0
  3398  0562  1303               	bcf	status, 6	;RP1=0, select bank0
  3399  0563  009F               	movwf	(31)	;volatile
  3400                           	line	186
  3401                           ;aqm.c: 186: while(ADGO);
  3402  0564  2D65               	goto	l661
  3403                           	
  3404  0565                     l662:	
  3405                           	
  3406  0565                     l661:	
  3407  0565  191F               	btfsc	(250/8),(250)&7
  3408  0566  2D68               	goto	u2731
  3409  0567  2D69               	goto	u2730
  3410  0568                     u2731:
  3411  0568  2D65               	goto	l661
  3412  0569                     u2730:
  3413  0569  2D6A               	goto	l2561
  3414                           	
  3415  056A                     l663:	
  3416                           	line	187
  3417                           	
  3418  056A                     l2561:	
  3419                           ;aqm.c: 187: a=ADRESL;
  3420  056A  1683               	bsf	status, 5	;RP0=1, select bank1
  3421  056B  1303               	bcf	status, 6	;RP1=0, select bank1
  3422  056C  081E               	movf	(158)^080h,w	;volatile
  3423  056D  1283               	bcf	status, 5	;RP0=0, select bank0
  3424  056E  1303               	bcf	status, 6	;RP1=0, select bank0
  3425  056F  00BA               	movwf	(??_adc_conversion+0)+0
  3426  0570  01BB               	clrf	(??_adc_conversion+0)+0+1
  3427  0571  083A               	movf	0+(??_adc_conversion+0)+0,w
  3428  0572  00AA               	movwf	(_a)
  3429  0573  083B               	movf	1+(??_adc_conversion+0)+0,w
  3430  0574  00AB               	movwf	(_a+1)
  3431                           	line	188
  3432                           ;aqm.c: 188: b=ADRESH;
  3433  0575  081E               	movf	(30),w	;volatile
  3434  0576  00BA               	movwf	(??_adc_conversion+0)+0
  3435  0577  01BB               	clrf	(??_adc_conversion+0)+0+1
  3436  0578  083A               	movf	0+(??_adc_conversion+0)+0,w
  3437  0579  00F5               	movwf	(_b)
  3438  057A  083B               	movf	1+(??_adc_conversion+0)+0,w
  3439  057B  00F6               	movwf	(_b+1)
  3440                           	line	189
  3441                           	
  3442  057C                     l2563:	
  3443                           ;aqm.c: 189: b=b*256;
  3444  057C  0876               	movf	(_b+1),w
  3445  057D  00BB               	movwf	(??_adc_conversion+0)+0+1
  3446  057E  0875               	movf	(_b),w
  3447  057F  00BA               	movwf	(??_adc_conversion+0)+0
  3448  0580  3008               	movlw	08h
  3449  0581  00FF               	movwf	btemp+1
  3450  0582                     u2745:
  3451  0582  1003               	clrc
  3452  0583  0DBA               	rlf	(??_adc_conversion+0)+0,f
  3453  0584  0DBB               	rlf	(??_adc_conversion+0)+1,f
  3454  0585  0BFF               	decfsz	btemp+1,f
  3455  0586  2D82               	goto	u2745
  3456  0587  083A               	movf	0+(??_adc_conversion+0)+0,w
  3457  0588  00F5               	movwf	(_b)
  3458  0589  083B               	movf	1+(??_adc_conversion+0)+0,w
  3459  058A  00F6               	movwf	(_b+1)
  3460                           	line	190
  3461                           	
  3462  058B                     l2565:	
  3463                           ;aqm.c: 190: c=b+a/2;
  3464  058B  082B               	movf	(_a+1),w
  3465  058C  00BB               	movwf	(??_adc_conversion+0)+0+1
  3466  058D  082A               	movf	(_a),w
  3467  058E  00BA               	movwf	(??_adc_conversion+0)+0
  3468  058F  3001               	movlw	01h
  3469  0590                     u2755:
  3470  0590  1003               	clrc
  3471  0591  0CBB               	rrf	(??_adc_conversion+0)+1,f
  3472  0592  0CBA               	rrf	(??_adc_conversion+0)+0,f
  3473  0593  3EFF               	addlw	-1
  3474  0594  1D03               	skipz
  3475  0595  2D90               	goto	u2755
  3476  0596  0875               	movf	(_b),w
  3477  0597  073A               	addwf	0+(??_adc_conversion+0)+0,w
  3478  0598  00AC               	movwf	(_c)
  3479  0599  0876               	movf	(_b+1),w
  3480  059A  1803               	skipnc
  3481  059B  0A76               	incf	(_b+1),w
  3482  059C  073B               	addwf	1+(??_adc_conversion+0)+0,w
  3483  059D  00AD               	movwf	1+(_c)
  3484                           	line	191
  3485                           	
  3486  059E                     l664:	
  3487  059E  0008               	return
  3488                           	opt stack 0
  3489                           GLOBAL	__end_of_adc_conversion
  3490  059F                     	__end_of_adc_conversion:
  3491 ;; =============== function _adc_conversion ends ============
  3492                           
  3493                           	signat	_adc_conversion,88
  3494                           	global	_serial_init
  3495                           psect	text530,local,class=CODE,delta=2
  3496                           global __ptext530
  3497  0670                     __ptext530:
  3498                           
  3499 ;; *************** function _serial_init *****************
  3500 ;; Defined at:
  3501 ;;		line 78 in file "C:\Users\ADMIN\Desktop\aqm\aqm.c"
  3502 ;; Parameters:    Size  Location     Type
  3503 ;;		None
  3504 ;; Auto vars:     Size  Location     Type
  3505 ;;		None
  3506 ;; Return value:  Size  Location     Type
  3507 ;;		None               void
  3508 ;; Registers used:
  3509 ;;		wreg
  3510 ;; Tracked objects:
  3511 ;;		On entry : 0/0
  3512 ;;		On exit  : 0/0
  3513 ;;		Unchanged: 0/0
  3514 ;; Data sizes:     COMMON   BANK0   BANK1   BANK3   BANK2
  3515 ;;      Params:         0       0       0       0       0
  3516 ;;      Locals:         0       0       0       0       0
  3517 ;;      Temps:          0       0       0       0       0
  3518 ;;      Totals:         0       0       0       0       0
  3519 ;;Total ram usage:        0 bytes
  3520 ;; Hardware stack levels used:    1
  3521 ;; Hardware stack levels required when called:    1
  3522 ;; This function calls:
  3523 ;;		Nothing
  3524 ;; This function is called by:
  3525 ;;		_main
  3526 ;; This function uses a non-reentrant model
  3527 ;;
  3528                           psect	text530
  3529                           	file	"C:\Users\ADMIN\Desktop\aqm\aqm.c"
  3530                           	line	78
  3531                           	global	__size_of_serial_init
  3532  0015                     	__size_of_serial_init	equ	__end_of_serial_init-_serial_init
  3533                           	
  3534  0670                     _serial_init:	
  3535                           	opt	stack 6
  3536                           ; Regs used in _serial_init: [wreg]
  3537                           	line	79
  3538                           	
  3539  0670                     l2223:	
  3540                           ;aqm.c: 79: SPBRG=129;
  3541  0670  3081               	movlw	(081h)
  3542  0671  1683               	bsf	status, 5	;RP0=1, select bank1
  3543  0672  1303               	bcf	status, 6	;RP1=0, select bank1
  3544  0673  0099               	movwf	(153)^080h	;volatile
  3545                           	line	80
  3546                           	
  3547  0674                     l2225:	
  3548                           ;aqm.c: 80: BRGH=1;
  3549  0674  1518               	bsf	(1218/8)^080h,(1218)&7
  3550                           	line	81
  3551                           	
  3552  0675                     l2227:	
  3553                           ;aqm.c: 81: SYNC=0;
  3554  0675  1218               	bcf	(1220/8)^080h,(1220)&7
  3555                           	line	82
  3556                           	
  3557  0676                     l2229:	
  3558                           ;aqm.c: 82: SPEN=1;
  3559  0676  1283               	bcf	status, 5	;RP0=0, select bank0
  3560  0677  1303               	bcf	status, 6	;RP1=0, select bank0
  3561  0678  1798               	bsf	(199/8),(199)&7
  3562                           	line	83
  3563                           	
  3564  0679                     l2231:	
  3565                           ;aqm.c: 83: RCIE=1;
  3566  0679  1683               	bsf	status, 5	;RP0=1, select bank1
  3567  067A  1303               	bcf	status, 6	;RP1=0, select bank1
  3568  067B  168C               	bsf	(1125/8)^080h,(1125)&7
  3569                           	line	84
  3570                           	
  3571  067C                     l2233:	
  3572                           ;aqm.c: 84: CREN=1;
  3573  067C  1283               	bcf	status, 5	;RP0=0, select bank0
  3574  067D  1303               	bcf	status, 6	;RP1=0, select bank0
  3575  067E  1618               	bsf	(196/8),(196)&7
  3576                           	line	85
  3577                           	
  3578  067F                     l2235:	
  3579                           ;aqm.c: 85: TXEN=1;
  3580  067F  1683               	bsf	status, 5	;RP0=1, select bank1
  3581  0680  1303               	bcf	status, 6	;RP1=0, select bank1
  3582  0681  1698               	bsf	(1221/8)^080h,(1221)&7
  3583                           	line	86
  3584                           	
  3585  0682                     l2237:	
  3586                           ;aqm.c: 86: GIE=1;
  3587  0682  178B               	bsf	(95/8),(95)&7
  3588                           	line	87
  3589                           	
  3590  0683                     l2239:	
  3591                           ;aqm.c: 87: PEIE=1;
  3592  0683  170B               	bsf	(94/8),(94)&7
  3593                           	line	88
  3594                           	
  3595  0684                     l620:	
  3596  0684  0008               	return
  3597                           	opt stack 0
  3598                           GLOBAL	__end_of_serial_init
  3599  0685                     	__end_of_serial_init:
  3600 ;; =============== function _serial_init ends ============
  3601                           
  3602                           	signat	_serial_init,88
  3603                           	global	_funct
  3604                           psect	text531,local,class=CODE,delta=2
  3605                           global __ptext531
  3606  05CE                     __ptext531:
  3607                           
  3608 ;; *************** function _funct *****************
  3609 ;; Defined at:
  3610 ;;		line 175 in file "C:\Users\ADMIN\Desktop\aqm\aqm.c"
  3611 ;; Parameters:    Size  Location     Type
  3612 ;;		None
  3613 ;; Auto vars:     Size  Location     Type
  3614 ;;		None
  3615 ;; Return value:  Size  Location     Type
  3616 ;;		None               void
  3617 ;; Registers used:
  3618 ;;		wreg, fsr0l, fsr0h, status,2, status,0
  3619 ;; Tracked objects:
  3620 ;;		On entry : 0/0
  3621 ;;		On exit  : 0/0
  3622 ;;		Unchanged: 0/0
  3623 ;; Data sizes:     COMMON   BANK0   BANK1   BANK3   BANK2
  3624 ;;      Params:         0       0       0       0       0
  3625 ;;      Locals:         0       0       0       0       0
  3626 ;;      Temps:          5       0       0       0       0
  3627 ;;      Totals:         5       0       0       0       0
  3628 ;;Total ram usage:        5 bytes
  3629 ;; Hardware stack levels used:    1
  3630 ;; This function calls:
  3631 ;;		Nothing
  3632 ;; This function is called by:
  3633 ;;		Interrupt level 1
  3634 ;; This function uses a non-reentrant model
  3635 ;;
  3636                           psect	text531
  3637                           	file	"C:\Users\ADMIN\Desktop\aqm\aqm.c"
  3638                           	line	175
  3639                           	global	__size_of_funct
  3640  002A                     	__size_of_funct	equ	__end_of_funct-_funct
  3641                           	
  3642  05CE                     _funct:	
  3643                           	opt	stack 3
  3644                           ; Regs used in _funct: [wreg-fsr0h+status,2+status,0]
  3645                           psect	intentry,class=CODE,delta=2
  3646                           global __pintentry
  3647  0004                     __pintentry:
  3648                           global interrupt_function
  3649  0004                     interrupt_function:
  3650                           	global saved_w
  3651  007E                     	saved_w	set	btemp+0
  3652  0004  00FE               	movwf	saved_w
  3653  0005  0803               	movf	status,w
  3654  0006  00F1               	movwf	(??_funct+1)
  3655  0007  0804               	movf	fsr0,w
  3656  0008  00F2               	movwf	(??_funct+2)
  3657  0009  080A               	movf	pclath,w
  3658  000A  00F3               	movwf	(??_funct+3)
  3659  000B  1283               	bcf	status, 5	;RP0=0, select bank0
  3660  000C  1303               	bcf	status, 6	;RP1=0, select bank0
  3661  000D  087F               	movf	btemp+1,w
  3662  000E  00F4               	movwf	(??_funct+4)
  3663  000F  120A  118A  2DCE   	ljmp	_funct
  3664                           psect	text531
  3665                           	line	176
  3666                           	
  3667  05CE                     i1l2251:	
  3668                           ;aqm.c: 176: if(RCIF){
  3669  05CE  1E8C               	btfss	(101/8),(101)&7
  3670  05CF  2DD1               	goto	u241_21
  3671  05D0  2DD2               	goto	u241_20
  3672  05D1                     u241_21:
  3673  05D1  2DED               	goto	i1l658
  3674  05D2                     u241_20:
  3675                           	line	177
  3676                           	
  3677  05D2                     i1l2253:	
  3678                           ;aqm.c: 177: RCIF=0;
  3679  05D2  128C               	bcf	(101/8),(101)&7
  3680                           	line	178
  3681                           	
  3682  05D3                     i1l2255:	
  3683                           ;aqm.c: 178: s[p]=RCREG;
  3684  05D3  081A               	movf	(26),w	;volatile
  3685  05D4  00F0               	movwf	(??_funct+0)+0
  3686  05D5  0877               	movf	(_p),w
  3687  05D6  3E25               	addlw	_s&0ffh
  3688  05D7  0084               	movwf	fsr0
  3689  05D8  0870               	movf	(??_funct+0)+0,w
  3690  05D9  1383               	bcf	status, 7	;select IRP bank0
  3691  05DA  0080               	movwf	indf
  3692                           	line	179
  3693                           	
  3694  05DB                     i1l2257:	
  3695                           ;aqm.c: 179: if(s[0]=='*'){p++;}
  3696  05DB  0825               	movf	(_s),w
  3697  05DC  3A2A               	xorlw	02Ah
  3698  05DD  1D03               	skipz
  3699  05DE  2DE0               	goto	u242_21
  3700  05DF  2DE1               	goto	u242_20
  3701  05E0                     u242_21:
  3702  05E0  2DE6               	goto	i1l2261
  3703  05E1                     u242_20:
  3704                           	
  3705  05E1                     i1l2259:	
  3706  05E1  3001               	movlw	(01h)
  3707  05E2  00F0               	movwf	(??_funct+0)+0
  3708  05E3  0870               	movf	(??_funct+0)+0,w
  3709  05E4  07F7               	addwf	(_p),f
  3710  05E5  2DED               	goto	i1l658
  3711                           	line	180
  3712                           	
  3713  05E6                     i1l656:	
  3714                           	
  3715  05E6                     i1l2261:	
  3716                           ;aqm.c: 180: else {p=0;}
  3717  05E6  1003               	clrc
  3718  05E7  3000               	movlw	0
  3719  05E8  1803               	btfsc	status,0
  3720  05E9  3001               	movlw	1
  3721  05EA  00F7               	movwf	(_p)
  3722  05EB  2DED               	goto	i1l658
  3723                           	
  3724  05EC                     i1l657:	
  3725  05EC  2DED               	goto	i1l658
  3726                           	line	181
  3727                           	
  3728  05ED                     i1l655:	
  3729                           	line	182
  3730                           	
  3731  05ED                     i1l658:	
  3732  05ED  0874               	movf	(??_funct+4),w
  3733  05EE  00FF               	movwf	btemp+1
  3734  05EF  0873               	movf	(??_funct+3),w
  3735  05F0  008A               	movwf	pclath
  3736  05F1  0872               	movf	(??_funct+2),w
  3737  05F2  0084               	movwf	fsr0
  3738  05F3  0871               	movf	(??_funct+1),w
  3739  05F4  0083               	movwf	status
  3740  05F5  0EFE               	swapf	saved_w,f
  3741  05F6  0E7E               	swapf	saved_w,w
  3742  05F7  0009               	retfie
  3743                           	opt stack 0
  3744                           GLOBAL	__end_of_funct
  3745  05F8                     	__end_of_funct:
  3746 ;; =============== function _funct ends ============
  3747                           
  3748                           	signat	_funct,88
  3749                           psect	text532,local,class=CODE,delta=2
  3750                           global __ptext532
  3751  0000                     __ptext532:
  3752                           	global	btemp
  3753  007E                     	btemp set 07Eh
  3754                           
  3755                           	DABS	1,126,2	;btemp
  3756                           	global	wtemp0
  3757  007E                     	wtemp0 set btemp


HI-TECH Software PICC Macro Assembler V9.80 build 6738 
Symbol Table                                                                                   Fri Mar 16 18:07:46 2018

                      _a 002A                        _b 0075                        _c 002C  
                      _d 002E                        _j 0030                        _k 0032  
                      _l 0034                        _m 0036                        _n 0038  
                      _p 0077                        _r 0020                        _s 0025  
                      _y 0078                        pc 0002                       fsr 0004  
                    l611 0497                      l620 0684                      l700 04E9  
                    l612 04C4                      l701 04EA                      l613 04C5  
                    l702 0503                      l710 0537                      l630 01B1  
                    l614 04C5                      l703 0511                      l711 0538  
                    l631 0194                      l623 0128                      l704 0519  
                    l712 0549                      l640 032E                      l624 01B4  
                    l632 01B0                      l713 0557                      l617 0451  
                    l633 01AF                      l625 0143                      l714 055F  
                    l650 05FC                      l634 0249                      l626 01B3  
                    l643 069C                      l707 0558                      l651 061C  
                    l627 015E                      l644 069C                      l708 0532  
                    l652 061C                      l628 01B2                      l661 0565  
                    l645 06A0                      l709 0526                      l637 032E  
                    l629 0179                      l662 0565                      l646 06A1  
                    l670 066F                      l638 0309                      l663 056A  
                    l639 031F                      l664 059E                      l680 05A3  
                    l673 0656                      l649 060F                      l681 05CD  
                    l682 05CD                      l667 03CB                      l676 0639  
                    l679 05BE                      l697 0512                      l698 04E4  
                    l699 04D8                      _GIE 005F                      _RA2 002A  
                    _RA5 002D                      _RE0 0048                      fsr0 0004  
                    indf 0000                     l2231 0679                     l2223 0670  
                   l2233 067C                     l2225 0674                     l2235 067F  
                   l2227 0675                     l2237 0682                     l2229 0676  
                   l2239 0683                     l2601 0532                     l2603 0538  
                   l2611 0558                     l2613 055F                     l2605 0542  
                   l2621 064A                     l2701 02A4                     l2607 0549  
                   l2615 063D                     l2623 05FB                     l2631 0620  
                   l2711 02D8                     l2703 02AA                     l2561 056A  
                   l2609 0550                     l2617 063F                     l2625 05FC  
                   l2633 0622                     l2641 03D2                     l2721 02FC  
                   l2713 02DE                     l2705 02B8                     l2801 020A  
                   l2563 057C                     l2571 04D4                     l2619 0640  
                   l2627 0608                     l2635 0623                     l2651 0408  
                   l2643 03D8                     l2731 0318                     l2723 0302  
                   l2715 02ED                     l2707 02BE                     l2811 0236  
                   l2803 0210                     l2565 058B                     l2581 04FB  
                   l2573 04D8                     l2629 060F                     l2637 062D  
                   l2661 043D                     l2653 040E                     l2645 03E7  
                   l2733 031F                     l2725 0309                     l2717 02F3  
                   l2709 02D2                     l2813 0244                     l2805 0216  
                   l2741 0107                     l2821 045E                     l2559 0560  
                   l2567 0699                     l2591 0519                     l2583 0501  
                   l2575 04DF                     l2663 0443                     l2655 041D  
                   l2647 03ED                     l2639 03CC                     l2671 05AF  
                   l2727 0311                     l2719 02FB                     l2807 021C  
                   l2751 0133                     l2743 010D                     l2735 00E3  
                   l2831 0475                     l2823 0461                     l2815 0452  
                   l2585 0503                     l2577 04E4                     l2569 04C8  
                   l2593 051A                     l2657 0429                     l2649 0402  
                   l2665 0657                     l2673 05B5                     l2729 0312  
                   l2681 0250                     l2809 022A                     l2761 015E  
                   l2753 013C                     l2745 0118                     l2737 00E9  
                   l2841 0490                     l2833 047A                     l2825 0464  
                   l2817 0456                     l2587 050A                     l2579 04EA  
                   l2595 0522                     l2659 0437                     l2675 05BE  
                   l2667 05A2                     l2691 0280                     l2683 0256  
                   l2771 018D                     l2763 0169                     l2755 0143  
                   l2747 0121                     l2739 00EF                     l2851 04BE  
                   l2843 0497                     l2835 047F                     l2827 0467  
                   l2819 0457                     l2589 0512                     l2597 0526  
                   l2669 05A3                     l2677 032F                     l2693 028C  
                   l2685 026E                     l2781 01BD                     l2773 0194  
                   l2765 0172                     l2757 014E                     l2749 0128  
                   l2845 049C                     l2837 0484                     l2829 0472  
                   l2599 052D                     l2695 0292                     l2687 0274  
                   l2679 024A                     l2791 01E4                     l2783 01C6  
                   l2775 019F                     l2767 0179                     l2759 0157  
                   l2847 04A2                     l2839 048A                     l2697 0298  
                   l2689 027A                     l2793 01F2                     l2785 01CF  
                   l2777 01A8                     l2769 0184                     l2849 04AF  
                   l2699 029E                     l2795 01F8                     l2787 01D8  
                   l2779 01B4                     l2797 01FE                     l2789 01DE  
                   l2799 0204                     _ADGO 00FA                     STR_1 00B7  
                   STR_2 00E0                     STR_3 00E0                     STR_4 00A6  
                   STR_5 0074                     STR_6 009A                     STR_7 0081  
                   STR_8 00DC                     STR_9 001B                     _BRGH 04C2  
                   _CREN 00C4                     u3000 0157                     u3001 0156  
                   u3010 0169                     u3011 0168                     u3020 0172  
                   u3021 0171                     u3030 0184                     u3031 0183  
                   u3040 018D                     u3041 018C                     u3050 019F  
                   u3107 023E                     u3051 019E                     u3060 01A8  
                   u3117 02B2                     u3061 01A7                     u3207 0628  
                   u3127 02CC                     u3217 0634                     u3137 02E6  
                   u3227 0645                     u3147 05B9                     u3237 0651  
                   u3157 03E0                     u3077 04B7                     u3167 03FB  
                   u3087 01EC                     u3177 0416                     u3097 0224  
                   u2730 0569                     u2810 04FB                     u2731 0568  
                   u2811 04FA                     u3187 0431                     u2900 061B  
                   u2805 04EB                     u2901 061A                     u3197 044B  
                   u2830 0510                     u2910 05CC                     u2831 050F  
                   u2815 04F7                     u2911 05CB                     u2760 06A0  
                   u2840 0522                     u2920 02F3                     u2745 0582  
                   u2761 069F                     u2825 0504                     u2841 0521  
                   u2921 02F2                     u2770 04D4                     u2930 02FB  
                   u2755 0590                     u2771 04D3                     u2931 02FA  
                   _PEIE 005E                     u2860 0536                     u2940 0311  
                   u2861 0535                     u2941 0310                     u2790 04E8  
                   u2870 0542                     u2950 0118                     u2791 04E7  
                   u2871 0541                     u2855 0527                     u2951 0117  
                   u2960 0121                     u2785 04D9                     u2961 0120  
                   u2890 0556                     u2970 0133                     u2891 0555  
                   u2875 053E                     u2971 0132                     _RCIE 0465  
                   u2980 013C                     _RCIF 0065                     u2885 054A  
                   u2981 013B                     u2990 014E                     u2991 014D  
                   _SPEN 00C7                     _TXEN 04C5                     _TXIF 0064  
                   _SYNC 04C4                     _main 0452                     _gprs 00E3  
                   btemp 007E                     start 0012              hexa_val@val 0042  
                  ?_main 0070                    ?_gprs 0070                    STR_10 00C4  
                  STR_11 00C3                    STR_20 00DC                    STR_12 00D0  
                  STR_13 00CC                    STR_21 0041                    STR_22 0081  
                  STR_14 00BD                    STR_23 00D4                    STR_15 00AF  
                  STR_24 0064                    STR_16 0081                    STR_17 00D4  
                  STR_25 008E                    STR_26 00C8                    STR_18 0064  
                  STR_19 0081                    STR_27 00D8          __end_of___lwdiv 051A  
        __end_of___lwmod 0560                    i1l655 05ED                    i1l656 05E6  
                  i1l657 05EC                    i1l658 05ED                    _RCREG 001A  
                  _SPBRG 0099                    _PORTA 0005                    _PORTB 0006  
                  _PORTC 0007                    _PORTD 0008                    _PORTE 0009  
                  _TRISA 0085                    _TRISB 0086                    _TRISC 0087  
                  _TRISD 0088                    _TRISE 0089                    _TXREG 0019  
        __end_of_command 0657                    _gprs1 024A                    _funct 05CE  
                  pclath 000A                    status 0003                    wtemp0 007E  
           __end_of_main 04C8             __end_of_gprs 024A                   ??_main 0046  
                 ??_gprs 0043                   _ADCON0 001F                   _ADCON1 009F  
                 ?_gprs1 0070                   ?_funct 0070                   _ADRESH 001E  
                 _ADRESL 009E  __size_of_adc_conversion 003F                   i1l2251 05CE  
                 i1l2261 05E6                   i1l2253 05D2                   i1l2255 05D3  
                 i1l2257 05DB                   i1l2259 05E1                   u241_20 05D2  
                 u241_21 05D1                   u242_20 05E1                   u242_21 05E0  
       __end_of_lcd_data 063A             ?_serial_init 0070         __end_of_lcd_init 0670  
   __size_of_lcd_display 002F         __end_of_hexa_val 03CC                ??___lwdiv 003E  
              ??___lwmod 003E         __end_of_gsm_init 0452                   clrloop 06A3  
              ??_command 003A                   saved_w 007E           __pcstackCOMMON 0070  
          __end_of_gprs1 032F            __end_of_funct 05F8  __size_of_serial_display 0025  
                ??_gprs1 0040                  ??_funct 0070               __pbssBANK0 0020  
             __pmaintext 0452          lcd_display@word 003F               __pintentry 0004  
              ?_lcd_data 0070           _adc_conversion 0560                ?_lcd_init 0070  
              ?_hexa_val 0042                ?_gsm_init 0070                  ___lwdiv 04C8  
                ___lwmod 051A     __size_of_serial_init 0015                  _command 063A  
 __end_of_adc_conversion 059F               ??_lcd_data 003A              serial_out@z 003A  
             ??_lcd_init 0075     end_of_initialization 0692               ??_hexa_val 0075  
             ??_gsm_init 003D               _serial_out 0696           _serial_display 05F8  
        ?_adc_conversion 0070               command@com 003C            ??_lcd_display 003D  
 __end_of_serial_display 061D      start_initialization 0685              ?_serial_out 0070  
        ?_serial_display 0070      __end_of_lcd_display 05CE              __pbssCOMMON 0075  
          __pcstackBANK0 003A        __size_of_lcd_data 001D        __size_of_lcd_init 0019  
      __size_of_hexa_val 009D        __size_of_gsm_init 0086         ___lwdiv@dividend 003C  
              __ptext520 059F                __ptext521 0657                __ptext530 0670  
              __ptext522 03CC                __ptext531 05CE                __ptext523 061D  
              __ptext532 0000                __ptext524 05F8                __ptext516 0000  
              __ptext525 063A                __ptext517 00E3                __ptext526 051A  
              __ptext518 024A                __ptext527 04C8                __ptext519 032F  
              __ptext528 0696                __ptext529 0560                 ?___lwdiv 003A  
               ?___lwmod 003A                __pstrings 0015                 ?_command 0070  
       ___lwdiv@quotient 0040      __size_of_serial_out 000C           __size_of_gprs1 00E5  
         __size_of_funct 002A        interrupt_function 0004              _lcd_display 059F  
          ??_serial_init 0075                lcd_data@D 003C         ??_adc_conversion 003A  
            __stringbase 001A         __size_of___lwdiv 0052         __size_of___lwmod 0046  
    __end_of_serial_init 0685         __size_of_command 001D          ___lwdiv@divisor 003A  
        ___lwdiv@counter 003F                 _lcd_data 061D                 _lcd_init 0657  
               _hexa_val 032F                 _gsm_init 03CC            __size_of_main 0076  
          __size_of_gprs 0167         ??_serial_display 003B                 clear_ram 06A2  
           ??_serial_out 0075       __end_of_serial_out 06A2                 intlevel1 0000  
       ___lwmod@dividend 003C                stringcode 0015              _serial_init 0670  
        ___lwmod@divisor 003A          ___lwmod@counter 003F                 stringdir 0015  
               stringtab 0015             ?_lcd_display 0070          serial_display@w 003C  
